(dp0
VBaseResponse
p1
(dp2
VRet
p3
L0L
sVErrMsg
p4
V
p5
ssVCount
p6
L11L
sVContactList
p7
(lp8
(dp9
VUin
p10
L0L
sVUserName
p11
Vfilehelper
p12
sVNickName
p13
V\u6587\u4ef6\u4f20\u8f93\u52a9\u624b
p14
sVHeadImgUrl
p15
V/cgi-bin/mmwebwx-bin/webwxgeticon?seq=654718195&username=filehelper&skey=@crypt_bfcd2e1b_90c60cfbd93975a9fa855163853e9636
p16
sVContactFlag
p17
L3L
sVMemberCount
p18
L0L
sVMemberList
p19
(lp20
sVRemarkName
p21
g5
sVHideInputBarFlag
p22
L0L
sVSex
p23
L0L
sVSignature
p24
g5
sVVerifyFlag
p25
L0L
sVOwnerUin
p26
L0L
sVPYInitial
p27
VWJCSZS
p28
sVPYQuanPin
p29
Vwenjianchuanshuzhushou
p30
sVRemarkPYInitial
p31
g5
sVRemarkPYQuanPin
p32
g5
sVStarFriend
p33
L0L
sVAppAccountFlag
p34
L0L
sVStatues
p35
L0L
sVAttrStatus
p36
L0L
sVProvince
p37
g5
sVCity
p38
g5
sVAlias
p39
g5
sVSnsFlag
p40
L0L
sVUniFriend
p41
L0L
sVDisplayName
p42
g5
sVChatRoomId
p43
L0L
sVKeyWord
p44
Vfil
p45
sVEncryChatRoomId
p46
g5
sVIsOwner
p47
L0L
sa(dp48
g10
L0L
sg11
V@@623509b9d912b8e56792e6c35e0506e9dd5bbc4d50d8abffa29796f6cc846fef
p49
sg13
V\u7814\u4e00\u5c0f\u5206\u961f
p50
sg15
V/cgi-bin/mmwebwx-bin/webwxgetheadimg?seq=0&username=@@623509b9d912b8e56792e6c35e0506e9dd5bbc4d50d8abffa29796f6cc846fef&skey=@crypt_bfcd2e1b_90c60cfbd93975a9fa855163853e9636
p51
sg17
L0L
sg18
L5L
sg19
(lp52
(dp53
g10
L0L
sg11
V@85aeb74697aeb1ba3e043216a61aad5cda901e1eb97d66ab3d9deb773fea8202
p54
sg13
g5
sg36
L0L
sg27
g5
sg29
g5
sg31
g5
sg32
g5
sVMemberStatus
p55
L0L
sg42
g5
sg44
g5
sa(dp56
g10
L0L
sg11
V@fc3bc2fa2495bc0ed5eb81ef802d4157886f36f898cfa35b0fd96bc4fefc93a1
p57
sg13
g5
sg36
L0L
sg27
g5
sg29
g5
sg31
g5
sg32
g5
sg55
L0L
sg42
g5
sg44
g5
sa(dp58
g10
L0L
sg11
V@09f8469b5ade5d2261033dd55b387fd1c29dbdc5cf254ba04f56b983d42f6bfa
p59
sg13
g5
sg36
L0L
sg27
g5
sg29
g5
sg31
g5
sg32
g5
sg55
L0L
sg42
g5
sg44
g5
sa(dp60
g10
L0L
sg11
V@78263dccc82073cd7db175b99394dbb9a3c0e00a9c4b3dc73313a5c1ff8e5e6f
p61
sg13
g5
sg36
L0L
sg27
g5
sg29
g5
sg31
g5
sg32
g5
sg55
L0L
sg42
g5
sg44
g5
sa(dp62
g10
L0L
sg11
V@c6c0f3bde42e885886232a32f5ff7f1c644e1af1c33967bb50555e57fc1f3345
p63
sg13
g5
sg36
L0L
sg27
g5
sg29
g5
sg31
g5
sg32
g5
sg55
L0L
sg42
g5
sg44
g5
sasg21
g5
sg22
L0L
sg23
L0L
sg24
g5
sg25
L0L
sg26
L0L
sg27
g5
sg29
g5
sg31
g5
sg32
g5
sg33
L0L
sg34
L0L
sg35
L1L
sg36
L0L
sg37
g5
sg38
g5
sg39
g5
sg40
L0L
sg41
L0L
sg42
g5
sg43
L0L
sg44
g5
sg46
g5
sg47
L0L
sa(dp64
g10
L0L
sg11
V@665026cdec2e221353416dbcb61bdb98
p65
sg13
V\u897f\u7535\u7814\u7a76\u751f
p66
sg15
V/cgi-bin/mmwebwx-bin/webwxgeticon?seq=654690062&username=@665026cdec2e221353416dbcb61bdb98&skey=@crypt_bfcd2e1b_90c60cfbd93975a9fa855163853e9636
p67
sg17
L3L
sg18
L0L
sg19
(lp68
sg21
g5
sg22
L0L
sg23
L0L
sg24
V\u897f\u5b89\u7535\u5b50\u79d1\u6280\u5927\u5b66\u7814\u7a76\u751f\u5de5\u4f5c\u90e8\u5b98\u65b9\u5e73\u53f0\uff0c\u4e3a\u7814\u7a76\u751f\u63d0\u4f9b\u6700\u9ad8\u6548\u3001\u4fbf\u6377\u7684\u8d44\u8baf\u3002
p69
sg25
L24L
sg26
L0L
sg27
VXDYJS
p70
sg29
Vxidianyanjiusheng
p71
sg31
g5
sg32
g5
sg33
L0L
sg34
L0L
sg35
L0L
sg36
L0L
sg37
V\u9655\u897f
p72
sg38
V\u897f\u5b89
p73
sg39
g5
sg40
L0L
sg41
L0L
sg42
g5
sg43
L0L
sg44
Vgh_
p74
sg46
g5
sg47
L0L
sa(dp75
g10
L0L
sg11
V@ae23dfcea93d2dc5b8d876080e95df29
p76
sg13
V\u5927\u6570\u636e\u6587\u6458
p77
sg15
V/cgi-bin/mmwebwx-bin/webwxgeticon?seq=669012310&username=@ae23dfcea93d2dc5b8d876080e95df29&skey=@crypt_bfcd2e1b_90c60cfbd93975a9fa855163853e9636
p78
sg17
L3L
sg18
L0L
sg19
(lp79
sg21
g5
sg22
L0L
sg23
L0L
sg24
V\u666e\u53ca\u6570\u636e\u601d\u7ef4\uff0c\u4f20\u64ad\u6570\u636e\u6587\u5316
p80
sg25
L24L
sg26
L0L
sg27
VDSJWZ
p81
sg29
Vdashujuwenzhai
p82
sg31
g5
sg32
g5
sg33
L0L
sg34
L0L
sg35
L0L
sg36
L0L
sg37
V\u5317\u4eac
p83
sg38
V\u6d77\u6dc0
p84
sg39
g5
sg40
L0L
sg41
L0L
sg42
g5
sg43
L0L
sg44
Vgh_
p85
sg46
g5
sg47
L0L
sa(dp86
g10
L0L
sg11
V@514d3232197d54190ca398597f2d54f7
p87
sg13
V\u897f\u7535\u4eba\u5de5\u667a\u80fd\u5b66\u9662
p88
sg15
V/cgi-bin/mmwebwx-bin/webwxgeticon?seq=685290591&username=@514d3232197d54190ca398597f2d54f7&skey=@crypt_bfcd2e1b_90c60cfbd93975a9fa855163853e9636
p89
sg17
L3L
sg18
L0L
sg19
(lp90
sg21
g5
sg22
L0L
sg23
L0L
sg24
V\u897f\u5b89\u7535\u5b50\u79d1\u6280\u5927\u5b66\u4eba\u5de5\u667a\u80fd\u5b66\u9662\uff08SAI\uff09\u5b98\u65b9\u5fae\u4fe1\u5e73\u53f0\u3002\u5ba3\u4f20\u5b66\u9662\u7279\u8272\uff0c\u6269\u5927\u5b66\u9662\u5f71\u54cd\uff0c\u670d\u52a1\u5b66\u9662\u5e08\u751f\u3002
p91
sg25
L24L
sg26
L0L
sg27
VXDRGZNXY
p92
sg29
Vxidianrengongzhinengxueyuan
p93
sg31
g5
sg32
g5
sg33
L0L
sg34
L0L
sg35
L0L
sg36
L0L
sg37
V\u9655\u897f
p94
sg38
V\u897f\u5b89
p95
sg39
g5
sg40
L0L
sg41
L0L
sg42
g5
sg43
L0L
sg44
Vgh_
p96
sg46
g5
sg47
L0L
sa(dp97
g10
L0L
sg11
V@73444b60667802f6f410b1e2eb04503f
p98
sg13
VCSDN
p99
sg15
V/cgi-bin/mmwebwx-bin/webwxgeticon?seq=669026576&username=@73444b60667802f6f410b1e2eb04503f&skey=@crypt_bfcd2e1b_90c60cfbd93975a9fa855163853e9636
p100
sg17
L3L
sg18
L0L
sg19
(lp101
sg21
g5
sg22
L0L
sg23
L0L
sg24
V\u8fd9\u91cc\uff0c\u6709\u4f5c\u4e3a\u6280\u672f\u4eba\u5fc5\u987b\u77e5\u9053\u7684\u4e1a\u754c\u5927\u4e8b\u3002
p102
sg25
L24L
sg26
L0L
sg27
VCSDN
p103
sg29
VCSDN
p104
sg31
g5
sg32
g5
sg33
L0L
sg34
L0L
sg35
L0L
sg36
L0L
sg37
V\u5317\u4eac
p105
sg38
V\u671d\u9633
p106
sg39
g5
sg40
L0L
sg41
L0L
sg42
g5
sg43
L0L
sg44
Vgh_
p107
sg46
g5
sg47
L0L
sa(dp108
g10
L0L
sg11
V@@7ac4b78f0edfbe306d6b1ed072a35eca39e415f9d46a0d56ecfe4bf88e678ab2
p109
sg13
V\u5409\u5927\u9655\u897f\u6821\u53cb\u4ea4\u6d41\u7fa42
p110
sg15
V/cgi-bin/mmwebwx-bin/webwxgetheadimg?seq=685294087&username=@@7ac4b78f0edfbe306d6b1ed072a35eca39e415f9d46a0d56ecfe4bf88e678ab2&skey=@crypt_bfcd2e1b_90c60cfbd93975a9fa855163853e9636
p111
sg17
L2L
sg18
L447L
sg19
(lp112
(dp113
g10
L0L
sg11
V@fb15c3173ae3181f861341bb4ad82a40c33f9b4c432ee9881b19930ee7c823cf
p114
sg13
g5
sg36
L0L
sg27
g5
sg29
g5
sg31
g5
sg32
g5
sg55
L0L
sg42
g5
sg44
Vqiu
p115
sa(dp116
g10
L0L
sg11
V@c9173ebbc84692979db2fe2b81b6ec8667657420e13649309f382e461d8db2cd
p117
sg13
g5
sg36
L0L
sg27
g5
sg29
g5
sg31
g5
sg32
g5
sg55
L0L
sg42
g5
sg44
g5
sa(dp118
g10
L0L
sg11
V@a7e93395b43ddd944f533b402eacb2bc4b2e81f5e1a0bc9592b86fa8783b6e93
p119
sg13
g5
sg36
L0L
sg27
g5
sg29
g5
sg31
g5
sg32
g5
sg55
L0L
sg42
g5
sg44
g5
sa(dp120
g10
L0L
sg11
V@de0ba62890fb0d92c48afb91b4eb0c3df98dcbdfc5245ec9bba0a567e0a7aefa
p121
sg13
g5
sg36
L0L
sg27
g5
sg29
g5
sg31
g5
sg32
g5
sg55
L0L
sg42
g5
sg44
g5
sa(dp122
g10
L0L
sg11
V@769958ca12aac13ce7240a753e7ab65a
p123
sg13
g5
sg36
L0L
sg27
g5
sg29
g5
sg31
g5
sg32
g5
sg55
L0L
sg42
g5
sg44
Vzha
p124
sa(dp125
g10
L0L
sg11
V@199715f762b729f544d186abb4de772291f355d55656a76d849b30df6876499d
p126
sg13
g5
sg36
L0L
sg27
g5
sg29
g5
sg31
g5
sg32
g5
sg55
L0L
sg42
g5
sg44
g5
sa(dp127
g10
L0L
sg11
V@5faff899af6406babf167bf37876d32b
p128
sg13
g5
sg36
L0L
sg27
g5
sg29
g5
sg31
g5
sg32
g5
sg55
L0L
sg42
g5
sg44
Vfen
p129
sa(dp130
g10
L0L
sg11
V@73f7f4588be83594d744809177787667
p131
sg13
g5
sg36
L0L
sg27
g5
sg29
g5
sg31
g5
sg32
g5
sg55
L0L
sg42
g5
sg44
Veri
p132
sa(dp133
g10
L0L
sg11
V@f5c1c8e510b0ab6b7dd42e59a6a833b78b7907e2caedf4f8f6c026e6dc28b1e1
p134
sg13
g5
sg36
L0L
sg27
g5
sg29
g5
sg31
g5
sg32
g5
sg55
L0L
sg42
g5
sg44
g5
sa(dp135
g10
L0L
sg11
V@fc5aba9f09d6e632b2ae415afa9201d671c6a5d1f48083ff08bf1d8be28a70f5
p136
sg13
g5
sg36
L0L
sg27
g5
sg29
g5
sg31
g5
sg32
g5
sg55
L0L
sg42
g5
sg44
g5
sa(dp137
g10
L0L
sg11
V@74d349663b3fcaf46a60443471c112c4
p138
sg13
g5
sg36
L0L
sg27
g5
sg29
g5
sg31
g5
sg32
g5
sg55
L0L
sg42
g5
sg44
Vyan
p139
sa(dp140
g10
L0L
sg11
V@a0c257f489943d0498e48f4341ae7f59123936f450cb4ef1f2528c8ffd733048
p141
sg13
g5
sg36
L0L
sg27
g5
sg29
g5
sg31
g5
sg32
g5
sg55
L0L
sg42
g5
sg44
g5
sa(dp142
g10
L0L
sg11
V@c8665eb951c30dc00f0c9e64de5ffc46
p143
sg13
g5
sg36
L0L
sg27
g5
sg29
g5
sg31
g5
sg32
g5
sg55
L0L
sg42
g5
sg44
Vzha
p144
sa(dp145
g10
L0L
sg11
V@1b41852a7e1dd3c01fb3fe77605af4614ee6af3cc1893616938bfbe3aad5b353
p146
sg13
g5
sg36
L0L
sg27
g5
sg29
g5
sg31
g5
sg32
g5
sg55
L0L
sg42
g5
sg44
g5
sa(dp147
g10
L0L
sg11
V@076e4657ef771feb99406e0676efe9134bc2e0ca32f9949da8fcabcf0514a64f
p148
sg13
g5
sg36
L0L
sg27
g5
sg29
g5
sg31
g5
sg32
g5
sg55
L0L
sg42
g5
sg44
g5
sa(dp149
g10
L0L
sg11
V@fa75bbd1000a0e9888bbf3b5b12bbb98496765496a29c5207ec031390a8fc8ff
p150
sg13
g5
sg36
L0L
sg27
g5
sg29
g5
sg31
g5
sg32
g5
sg55
L0L
sg42
g5
sg44
g5
sa(dp151
g10
L0L
sg11
V@b30071e5eb6c6651bc20177d67849381c434ee4c18dc8b75acd125957e1f7bc3
p152
sg13
g5
sg36
L0L
sg27
g5
sg29
g5
sg31
g5
sg32
g5
sg55
L0L
sg42
g5
sg44
g5
sa(dp153
g10
L0L
sg11
V@382c27199ed9a17de3df401c5af98f0c
p154
sg13
g5
sg36
L0L
sg27
g5
sg29
g5
sg31
g5
sg32
g5
sg55
L0L
sg42
g5
sg44
Vzha
p155
sa(dp156
g10
L0L
sg11
V@a7a64405aca289affce0dd11ad09867e45b1c403f86adca6b93bc9249067e2ed
p157
sg13
g5
sg36
L0L
sg27
g5
sg29
g5
sg31
g5
sg32
g5
sg55
L0L
sg42
g5
sg44
g5
sa(dp158
g10
L0L
sg11
V@6dbc9f5bc49e7eba82964a08f534d4b5f4c60d26e1753aa009b57555d478cd6e
p159
sg13
g5
sg36
L0L
sg27
g5
sg29
g5
sg31
g5
sg32
g5
sg55
L0L
sg42
g5
sg44
g5
sa(dp160
g10
L0L
sg11
V@2ffa051165c89996e5d9d9984fffd4db
p161
sg13
g5
sg36
L0L
sg27
g5
sg29
g5
sg31
g5
sg32
g5
sg55
L0L
sg42
g5
sg44
Vzha
p162
sa(dp163
g10
L0L
sg11
V@939b93941c81efb9ba6f7ecc09156bb0
p164
sg13
g5
sg36
L0L
sg27
g5
sg29
g5
sg31
g5
sg32
g5
sg55
L0L
sg42
g5
sg44
Vliu
p165
sa(dp166
g10
L0L
sg11
V@da0b658f8cbb04da5b11fffd9bd798405b5db63b18e5699e105dc00f8e1b3a08
p167
sg13
g5
sg36
L0L
sg27
g5
sg29
g5
sg31
g5
sg32
g5
sg55
L0L
sg42
g5
sg44
g5
sa(dp168
g10
L0L
sg11
V@d4c2c9d6098848ff77497c19f4dee46a1c6cd3ab5692a6c7b773c5d86d692f0c
p169
sg13
g5
sg36
L0L
sg27
g5
sg29
g5
sg31
g5
sg32
g5
sg55
L0L
sg42
g5
sg44
g5
sa(dp170
g10
L0L
sg11
V@f11a43cc3395547858442507d5a6c2ad0a5b680ce9973fae895be3c834ed4147
p171
sg13
g5
sg36
L0L
sg27
g5
sg29
g5
sg31
g5
sg32
g5
sg55
L0L
sg42
g5
sg44
g5
sa(dp172
g10
L0L
sg11
V@362409291c6f6168b2b0f1976f1ba53c400421f79323fd41ee21d65c077a6f2a
p173
sg13
g5
sg36
L0L
sg27
g5
sg29
g5
sg31
g5
sg32
g5
sg55
L0L
sg42
g5
sg44
g5
sa(dp174
g10
L0L
sg11
V@9ff11d4c7a9efef79decf6bcc2ffac2d
p175
sg13
g5
sg36
L0L
sg27
g5
sg29
g5
sg31
g5
sg32
g5
sg55
L0L
sg42
g5
sg44
Voya
p176
sa(dp177
g10
L0L
sg11
V@a9ccd2ebaad0b5ad1de9f5f3c17c0781
p178
sg13
g5
sg36
L0L
sg27
g5
sg29
g5
sg31
g5
sg32
g5
sg55
L0L
sg42
g5
sg44
Vliu
p179
sa(dp180
g10
L0L
sg11
V@d26f306009c36d586dc2af4e4c5c4599
p181
sg13
g5
sg36
L0L
sg27
g5
sg29
g5
sg31
g5
sg32
g5
sg55
L0L
sg42
g5
sg44
Vqq5
p182
sa(dp183
g10
L0L
sg11
V@6945136a8271a645d89f004e204156b77c3b03f96d45b8eeb43883c590ae374e
p184
sg13
g5
sg36
L0L
sg27
g5
sg29
g5
sg31
g5
sg32
g5
sg55
L0L
sg42
g5
sg44
g5
sa(dp185
g10
L0L
sg11
V@07513b644c3d4f50e0b7e787b1a2ea729ecfb58dd99d9eaaf9edf866c5a1661c
p186
sg13
g5
sg36
L0L
sg27
g5
sg29
g5
sg31
g5
sg32
g5
sg55
L0L
sg42
g5
sg44
g5
sa(dp187
g10
L0L
sg11
V@24b43ee171b039c4bfe6e7c4cbcddade6bfecab9702be618860478fc4d3ae9cc
p188
sg13
g5
sg36
L0L
sg27
g5
sg29
g5
sg31
g5
sg32
g5
sg55
L0L
sg42
g5
sg44
g5
sa(dp189
g10
L0L
sg11
V@db79c43eaa5902607e3f2652fec25c8563c5d0e94945dff9a6826c93a3345307
p190
sg13
g5
sg36
L0L
sg27
g5
sg29
g5
sg31
g5
sg32
g5
sg55
L0L
sg42
g5
sg44
g5
sa(dp191
g10
L0L
sg11
V@83187448634b2a5345265901d11e924bda8144f862b5a11dc0b1465cf475a899
p192
sg13
g5
sg36
L0L
sg27
g5
sg29
g5
sg31
g5
sg32
g5
sg55
L0L
sg42
g5
sg44
g5
sa(dp193
g10
L0L
sg11
V@6f98a13b072abd3ed674f23dcbf7f47cdb849688e36d7adf01ebd1391c825bf2
p194
sg13
g5
sg36
L0L
sg27
g5
sg29
g5
sg31
g5
sg32
g5
sg55
L0L
sg42
g5
sg44
g5
sa(dp195
g10
L0L
sg11
V@258eb5e785205f6ed787b98b9610eeb89b55b92ff4a36ac9260e42a3ad278afb
p196
sg13
g5
sg36
L0L
sg27
g5
sg29
g5
sg31
g5
sg32
g5
sg55
L0L
sg42
g5
sg44
g5
sa(dp197
g10
L0L
sg11
V@4b9b9cc94412d4b0269715fc0b7547f6
p198
sg13
g5
sg36
L0L
sg27
g5
sg29
g5
sg31
g5
sg32
g5
sg55
L0L
sg42
g5
sg44
Vtob
p199
sa(dp200
g10
L0L
sg11
V@18e69ed0515d7fe76d05204dffffe5d1
p201
sg13
g5
sg36
L0L
sg27
g5
sg29
g5
sg31
g5
sg32
g5
sg55
L0L
sg42
g5
sg44
Vusa
p202
sa(dp203
g10
L0L
sg11
V@5c8f7df5331e737951bc0273434ee2bc
p204
sg13
g5
sg36
L0L
sg27
g5
sg29
g5
sg31
g5
sg32
g5
sg55
L0L
sg42
g5
sg44
Vyan
p205
sa(dp206
g10
L0L
sg11
V@62f8e8041e80b5407a4176fdb6d29735
p207
sg13
g5
sg36
L0L
sg27
g5
sg29
g5
sg31
g5
sg32
g5
sg55
L0L
sg42
g5
sg44
Vqin
p208
sa(dp209
g10
L0L
sg11
V@4f4565e2805c989728dbe6f1296a43900fe1c4fa8ac786c163e684d602dd7600
p210
sg13
g5
sg36
L0L
sg27
g5
sg29
g5
sg31
g5
sg32
g5
sg55
L0L
sg42
g5
sg44
g5
sa(dp211
g10
L0L
sg11
V@71c12b38cb33b75dc01cec390980c4aadb20fc0a735389242d39ea57d4ef7aea
p212
sg13
g5
sg36
L0L
sg27
g5
sg29
g5
sg31
g5
sg32
g5
sg55
L0L
sg42
g5
sg44
g5
sa(dp213
g10
L0L
sg11
V@ec5c4bfec9e40def158c3a4394efd2181dea159953857bf709184ca517313a65
p214
sg13
g5
sg36
L0L
sg27
g5
sg29
g5
sg31
g5
sg32
g5
sg55
L0L
sg42
g5
sg44
g5
sa(dp215
g10
L0L
sg11
V@e8f8713af08bfbe49f68146bed56e2676c6a8966630595e9073c0f5902c559e5
p216
sg13
g5
sg36
L0L
sg27
g5
sg29
g5
sg31
g5
sg32
g5
sg55
L0L
sg42
g5
sg44
g5
sa(dp217
g10
L0L
sg11
V@17f8f3249255cb833b3a9c711601e21e
p218
sg13
g5
sg36
L0L
sg27
g5
sg29
g5
sg31
g5
sg32
g5
sg55
L0L
sg42
g5
sg44
Vzid
p219
sa(dp220
g10
L0L
sg11
V@5c3324ca280d15121784bf81722f10a1dca2aa926acfe7ed43fb111184c9967e
p221
sg13
g5
sg36
L0L
sg27
g5
sg29
g5
sg31
g5
sg32
g5
sg55
L0L
sg42
g5
sg44
g5
sa(dp222
g10
L0L
sg11
V@8a301db87aa01d3c938d75a9b6fa7ee7
p223
sg13
g5
sg36
L0L
sg27
g5
sg29
g5
sg31
g5
sg32
g5
sg55
L0L
sg42
g5
sg44
Vjit
p224
sa(dp225
g10
L0L
sg11
V@3db291078156ea916f6e32140b3737c70e89be07be9c99d9acc5e2f1fd08778d
p226
sg13
g5
sg36
L0L
sg27
g5
sg29
g5
sg31
g5
sg32
g5
sg55
L0L
sg42
g5
sg44
g5
sa(dp227
g10
L0L
sg11
V@487b4e2a1523f804504b0690abbcaa386cdd75bb6ed4611abb28f7abb0ef7255
p228
sg13
g5
sg36
L0L
sg27
g5
sg29
g5
sg31
g5
sg32
g5
sg55
L0L
sg42
g5
sg44
g5
sa(dp229
g10
L0L
sg11
V@e6540da4566c97ca6c05abdb4190bb84b3c5ebe9b107144ffca5ea2e890518e5
p230
sg13
g5
sg36
L0L
sg27
g5
sg29
g5
sg31
g5
sg32
g5
sg55
L0L
sg42
g5
sg44
g5
sa(dp231
g10
L0L
sg11
V@1b53c7b66c24451278455d454e9fc8b4d6bb18d89c2b5851daf4f7da33f7de7c
p232
sg13
g5
sg36
L0L
sg27
g5
sg29
g5
sg31
g5
sg32
g5
sg55
L0L
sg42
g5
sg44
g5
sa(dp233
g10
L0L
sg11
V@518a4cbf393d7000c523d529c7a9701a44b7dd22e19bb7d92658982927330c13
p234
sg13
g5
sg36
L0L
sg27
g5
sg29
g5
sg31
g5
sg32
g5
sg55
L0L
sg42
g5
sg44
g5
sa(dp235
g10
L0L
sg11
V@dc6cdfdd5f321fde4cd54c119831e01266530d9e1938b84815f69703662c3ff7
p236
sg13
g5
sg36
L0L
sg27
g5
sg29
g5
sg31
g5
sg32
g5
sg55
L0L
sg42
g5
sg44
g5
sa(dp237
g10
L0L
sg11
V@bdaeb5f31cc3d8541c1914f89d0db25bda88f7557a05a675fe88f3624d3ccd0e
p238
sg13
g5
sg36
L0L
sg27
g5
sg29
g5
sg31
g5
sg32
g5
sg55
L0L
sg42
g5
sg44
g5
sa(dp239
g10
L0L
sg11
V@a76b067a9ffbff83b62963e3f86a7c169e2b579796c64603bb7812f477c6a6d2
p240
sg13
g5
sg36
L0L
sg27
g5
sg29
g5
sg31
g5
sg32
g5
sg55
L0L
sg42
g5
sg44
g5
sa(dp241
g10
L0L
sg11
V@0da081e09483180a585ead9e09104d05
p242
sg13
g5
sg36
L0L
sg27
g5
sg29
g5
sg31
g5
sg32
g5
sg55
L0L
sg42
g5
sg44
VARE
p243
sa(dp244
g10
L0L
sg11
V@f9acc10c5d3c35252f91bda6176253c8eec40ae353b4d9d6f267a045aca01c28
p245
sg13
g5
sg36
L0L
sg27
g5
sg29
g5
sg31
g5
sg32
g5
sg55
L0L
sg42
g5
sg44
g5
sa(dp246
g10
L0L
sg11
V@3cde145da4a4dce15e0033f79ab4a1ad887d740a5602d0edee1dd2ff285947be
p247
sg13
g5
sg36
L0L
sg27
g5
sg29
g5
sg31
g5
sg32
g5
sg55
L0L
sg42
g5
sg44
g5
sa(dp248
g10
L0L
sg11
V@39678ce6d2e884171e2b628b38720ff3271df08b0fca40edd05ec4a482ac432a
p249
sg13
g5
sg36
L0L
sg27
g5
sg29
g5
sg31
g5
sg32
g5
sg55
L0L
sg42
g5
sg44
g5
sa(dp250
g10
L0L
sg11
V@2f866c188d65945000d3ee7865dc614a491dac7412e41a9c6c0293849b76d583
p251
sg13
g5
sg36
L0L
sg27
g5
sg29
g5
sg31
g5
sg32
g5
sg55
L0L
sg42
g5
sg44
g5
sa(dp252
g10
L0L
sg11
V@900b69aff2c1f7091ca184ce0e1a0c530b924cb3aa9e1dfad224c947c9b74626
p253
sg13
g5
sg36
L0L
sg27
g5
sg29
g5
sg31
g5
sg32
g5
sg55
L0L
sg42
g5
sg44
g5
sa(dp254
g10
L0L
sg11
V@ace6d1fd5e4d1167e4f29f8bdbf3f5702b3b99687272f63bc5facc07efbdc9f9
p255
sg13
g5
sg36
L0L
sg27
g5
sg29
g5
sg31
g5
sg32
g5
sg55
L0L
sg42
g5
sg44
g5
sa(dp256
g10
L0L
sg11
V@f03b063fe8bd18ee056888d4c010df422a858b5c92ccb85863a688de631ac4b2
p257
sg13
g5
sg36
L0L
sg27
g5
sg29
g5
sg31
g5
sg32
g5
sg55
L0L
sg42
g5
sg44
g5
sa(dp258
g10
L0L
sg11
V@5a93434749ccb20dfb2a4121ab1b5c73e9b3ef7b638f5933aed611a17ed3cf13
p259
sg13
g5
sg36
L0L
sg27
g5
sg29
g5
sg31
g5
sg32
g5
sg55
L0L
sg42
g5
sg44
g5
sa(dp260
g10
L0L
sg11
V@c61f5be1846fb5b0735d6fb0c0597d7e
p261
sg13
g5
sg36
L0L
sg27
g5
sg29
g5
sg31
g5
sg32
g5
sg55
L0L
sg42
g5
sg44
Vyue
p262
sa(dp263
g10
L0L
sg11
V@234a45941df7b7e3542ac383fc8f6c981c123bec940f683b5f4deabcc63afedd
p264
sg13
g5
sg36
L0L
sg27
g5
sg29
g5
sg31
g5
sg32
g5
sg55
L0L
sg42
g5
sg44
g5
sa(dp265
g10
L0L
sg11
V@ac7f88aa41d50afc2bdbc3c79a0161d3f796520d592186d8ca05d9e723d95240
p266
sg13
g5
sg36
L0L
sg27
g5
sg29
g5
sg31
g5
sg32
g5
sg55
L0L
sg42
g5
sg44
g5
sa(dp267
g10
L0L
sg11
V@320291e637ed1c9f5a14ee49b3a0bd8995cf0b7142d09093326b11806b6ecb31
p268
sg13
g5
sg36
L0L
sg27
g5
sg29
g5
sg31
g5
sg32
g5
sg55
L0L
sg42
g5
sg44
g5
sa(dp269
g10
L0L
sg11
V@9501f740f0329a110c63f1cb495aa139807eb8f953088c4957ea989cb33df203
p270
sg13
g5
sg36
L0L
sg27
g5
sg29
g5
sg31
g5
sg32
g5
sg55
L0L
sg42
g5
sg44
g5
sa(dp271
g10
L0L
sg11
V@6094013a501c8230d4b36635a8865500a801c826c7923eac52bcd00e7a1b2ac0
p272
sg13
g5
sg36
L0L
sg27
g5
sg29
g5
sg31
g5
sg32
g5
sg55
L0L
sg42
g5
sg44
g5
sa(dp273
g10
L0L
sg11
V@aaf16dc30de956a22db3015ed7908784dde12a1c886310e554fa81938a8449e6
p274
sg13
g5
sg36
L0L
sg27
g5
sg29
g5
sg31
g5
sg32
g5
sg55
L0L
sg42
g5
sg44
g5
sa(dp275
g10
L0L
sg11
V@f2afee33f780d6b3e4e628ab33900275
p276
sg13
g5
sg36
L0L
sg27
g5
sg29
g5
sg31
g5
sg32
g5
sg55
L0L
sg42
g5
sg44
Vzhu
p277
sa(dp278
g10
L0L
sg11
V@a05144e8b76f194fb4bf5559b955e546
p279
sg13
g5
sg36
L0L
sg27
g5
sg29
g5
sg31
g5
sg32
g5
sg55
L0L
sg42
g5
sg44
Vliu
p280
sa(dp281
g10
L0L
sg11
V@fff3d3a21d48dee462fe1932dbfbcc80
p282
sg13
g5
sg36
L0L
sg27
g5
sg29
g5
sg31
g5
sg32
g5
sg55
L0L
sg42
g5
sg44
Vlip
p283
sa(dp284
g10
L0L
sg11
V@b4dfb8bed0f1380111b6e5f8d3b27fc3a23e9e2bb8eea7607bc48f8298729cd7
p285
sg13
g5
sg36
L0L
sg27
g5
sg29
g5
sg31
g5
sg32
g5
sg55
L0L
sg42
g5
sg44
g5
sa(dp286
g10
L0L
sg11
V@b5558acb0c5dbced34d410e62d56f1a7
p287
sg13
g5
sg36
L0L
sg27
g5
sg29
g5
sg31
g5
sg32
g5
sg55
L0L
sg42
g5
sg44
Vhuh
p288
sa(dp289
g10
L0L
sg11
V@d124e4cde7dbd4b89bc649d21b6345a07e9f1b1c3f647b9e6a7f07d205f86b0c
p290
sg13
g5
sg36
L0L
sg27
g5
sg29
g5
sg31
g5
sg32
g5
sg55
L0L
sg42
g5
sg44
g5
sa(dp291
g10
L0L
sg11
V@8b06c3b1f0f0dbd5a2e96aabdae55366242d3e5ce06520294fd198340b429d08
p292
sg13
g5
sg36
L0L
sg27
g5
sg29
g5
sg31
g5
sg32
g5
sg55
L0L
sg42
g5
sg44
g5
sa(dp293
g10
L0L
sg11
V@75a179e41de289992a5722a03527bbd3c9997cdedc33a538afbf14b7fe23fa61
p294
sg13
g5
sg36
L0L
sg27
g5
sg29
g5
sg31
g5
sg32
g5
sg55
L0L
sg42
g5
sg44
g5
sa(dp295
g10
L0L
sg11
V@b4cccbcfc74ac9334d109da3d2988dd8
p296
sg13
g5
sg36
L0L
sg27
g5
sg29
g5
sg31
g5
sg32
g5
sg55
L0L
sg42
g5
sg44
Vlil
p297
sa(dp298
g10
L0L
sg11
V@3ca5ef8b107cacbc8dc7640250ad440b
p299
sg13
g5
sg36
L0L
sg27
g5
sg29
g5
sg31
g5
sg32
g5
sg55
L0L
sg42
g5
sg44
Vshu
p300
sa(dp301
g10
L0L
sg11
V@194e1abe5fd9a00863d8f7e6f203f4be1bbb095868f31c3cadddfa1b3e0328b2
p302
sg13
g5
sg36
L0L
sg27
g5
sg29
g5
sg31
g5
sg32
g5
sg55
L0L
sg42
g5
sg44
g5
sa(dp303
g10
L0L
sg11
V@9514424a46f510279c43feaf0d0a11251cdccb3d718bb196bc16ecf81e14f7cb
p304
sg13
g5
sg36
L0L
sg27
g5
sg29
g5
sg31
g5
sg32
g5
sg55
L0L
sg42
g5
sg44
g5
sa(dp305
g10
L0L
sg11
V@d875fc9d2ce9d24b0332e9e2bbebd7182996e4499b6eda6113fb78c524f034e6
p306
sg13
g5
sg36
L0L
sg27
g5
sg29
g5
sg31
g5
sg32
g5
sg55
L0L
sg42
g5
sg44
g5
sa(dp307
g10
L0L
sg11
V@2a63d5d1821b562b8506addb1c4535a71adfafee6be1c0736718c5e2a3c33e2b
p308
sg13
g5
sg36
L0L
sg27
g5
sg29
g5
sg31
g5
sg32
g5
sg55
L0L
sg42
g5
sg44
g5
sa(dp309
g10
L0L
sg11
V@4f5a37ba3d44320a7088b93435498868fb108f73bc6a05036cc98bd2bd85fece
p310
sg13
g5
sg36
L0L
sg27
g5
sg29
g5
sg31
g5
sg32
g5
sg55
L0L
sg42
g5
sg44
g5
sa(dp311
g10
L0L
sg11
V@cd7fd040449a6314956808618f8986a782772f30228c09972db8cb37a61a8206
p312
sg13
g5
sg36
L0L
sg27
g5
sg29
g5
sg31
g5
sg32
g5
sg55
L0L
sg42
g5
sg44
g5
sa(dp313
g10
L0L
sg11
V@c3995419250dbbf9fa9199d30d94909d
p314
sg13
g5
sg36
L0L
sg27
g5
sg29
g5
sg31
g5
sg32
g5
sg55
L0L
sg42
g5
sg44
Vluo
p315
sa(dp316
g10
L0L
sg11
V@927bb5c773be719a12c19bce38d4d2dcea8aeeb3b6021fcd1cada8c9826be5de
p317
sg13
g5
sg36
L0L
sg27
g5
sg29
g5
sg31
g5
sg32
g5
sg55
L0L
sg42
g5
sg44
g5
sa(dp318
g10
L0L
sg11
V@b65e408c510255e6d14fd9efc02c179f8e5460e92cbcf00922242971b7cc68d9
p319
sg13
g5
sg36
L0L
sg27
g5
sg29
g5
sg31
g5
sg32
g5
sg55
L0L
sg42
g5
sg44
g5
sa(dp320
g10
L0L
sg11
V@78bdf88b02696d0aff05b6e856fd896f
p321
sg13
g5
sg36
L0L
sg27
g5
sg29
g5
sg31
g5
sg32
g5
sg55
L0L
sg42
g5
sg44
Vxxa
p322
sa(dp323
g10
L0L
sg11
V@bc865324274ff1ea1a3edcb34a7bbebddcde381c53bfbc19910ab5e685b90a81
p324
sg13
g5
sg36
L0L
sg27
g5
sg29
g5
sg31
g5
sg32
g5
sg55
L0L
sg42
g5
sg44
g5
sa(dp325
g10
L0L
sg11
V@5a13eaaa019c3199faa5658e9e2bcad54d4cca981ba345c2bd33125910cc1bf9
p326
sg13
g5
sg36
L0L
sg27
g5
sg29
g5
sg31
g5
sg32
g5
sg55
L0L
sg42
g5
sg44
Vdul
p327
sa(dp328
g10
L0L
sg11
V@952fb885fe05b7cb0d6738e1ff82a0d0
p329
sg13
g5
sg36
L0L
sg27
g5
sg29
g5
sg31
g5
sg32
g5
sg55
L0L
sg42
g5
sg44
VMr_
p330
sa(dp331
g10
L0L
sg11
V@e218a432cda505cc858906f904b2c10d33e41c3bc436a79773f428617e63f201
p332
sg13
g5
sg36
L0L
sg27
g5
sg29
g5
sg31
g5
sg32
g5
sg55
L0L
sg42
g5
sg44
g5
sa(dp333
g10
L0L
sg11
V@f29cc46d8f7387ceb7d4f3243b7afd487f48f4fb71831f9ce32db98287ae2e51
p334
sg13
g5
sg36
L0L
sg27
g5
sg29
g5
sg31
g5
sg32
g5
sg55
L0L
sg42
g5
sg44
g5
sa(dp335
g10
L0L
sg11
V@5f1894c2d738a4f5c2127a65c9bea3b71565f682e7cb00de0dd34d227523a176
p336
sg13
g5
sg36
L0L
sg27
g5
sg29
g5
sg31
g5
sg32
g5
sg55
L0L
sg42
g5
sg44
g5
sa(dp337
g10
L0L
sg11
V@919cfbd5732fb4b21704b175305191851341989a42677fb23e9b7cdc9fdb2a21
p338
sg13
g5
sg36
L0L
sg27
g5
sg29
g5
sg31
g5
sg32
g5
sg55
L0L
sg42
g5
sg44
g5
sa(dp339
g10
L0L
sg11
V@dd2b990f42bbb0550f0616f3b9aff18f44c07c7e27f9494b993ab5687a306def
p340
sg13
g5
sg36
L0L
sg27
g5
sg29
g5
sg31
g5
sg32
g5
sg55
L0L
sg42
g5
sg44
g5
sa(dp341
g10
L0L
sg11
V@2b07963a7a9433a8a1224450f35de9316c579007104ac88d8ad21c0c519573ed
p342
sg13
g5
sg36
L0L
sg27
g5
sg29
g5
sg31
g5
sg32
g5
sg55
L0L
sg42
g5
sg44
g5
sa(dp343
g10
L0L
sg11
V@bc1d8607878af3cb3ca6bce92ebb39e30dbb9cc3cb919382ba10e834c5c0b8e7
p344
sg13
g5
sg36
L0L
sg27
g5
sg29
g5
sg31
g5
sg32
g5
sg55
L0L
sg42
g5
sg44
g5
sa(dp345
g10
L0L
sg11
V@4662ccea536bd1afa7b104a9f975fe8e0c01042c9b489f66e8e777a1b43a5763
p346
sg13
g5
sg36
L0L
sg27
g5
sg29
g5
sg31
g5
sg32
g5
sg55
L0L
sg42
g5
sg44
g5
sa(dp347
g10
L0L
sg11
V@83fc0238e72ea317ceb38aed01a44262817612880b5aa72f0bd46f426f33678e
p348
sg13
g5
sg36
L0L
sg27
g5
sg29
g5
sg31
g5
sg32
g5
sg55
L0L
sg42
g5
sg44
g5
sa(dp349
g10
L0L
sg11
V@32e389ce2acd7f8d993232ee48832df6
p350
sg13
g5
sg36
L0L
sg27
g5
sg29
g5
sg31
g5
sg32
g5
sg55
L0L
sg42
g5
sg44
Vwan
p351
sa(dp352
g10
L0L
sg11
V@b8cf8f91f4c9d635f383ee1067c25e6c
p353
sg13
g5
sg36
L0L
sg27
g5
sg29
g5
sg31
g5
sg32
g5
sg55
L0L
sg42
g5
sg44
VCor
p354
sa(dp355
g10
L0L
sg11
V@7959589b29ec8ccba0308f48f1deb09fa7247aafc8b1d55dcf95b9087496792e
p356
sg13
g5
sg36
L0L
sg27
g5
sg29
g5
sg31
g5
sg32
g5
sg55
L0L
sg42
g5
sg44
g5
sa(dp357
g10
L0L
sg11
V@bf9a73a781f49edef078abeacd98dc1588e326a2fe27d4524b7c18690462979f
p358
sg13
g5
sg36
L0L
sg27
g5
sg29
g5
sg31
g5
sg32
g5
sg55
L0L
sg42
g5
sg44
g5
sa(dp359
g10
L0L
sg11
V@a68a551010726b2dcbe4860126332939d8ac3507f2a8eb72bff5274982ac0a00
p360
sg13
g5
sg36
L0L
sg27
g5
sg29
g5
sg31
g5
sg32
g5
sg55
L0L
sg42
g5
sg44
g5
sa(dp361
g10
L0L
sg11
V@9140357f4b1835f71cc067606207796535b7f6e4f7eb5ed984fc464284e04e69
p362
sg13
g5
sg36
L0L
sg27
g5
sg29
g5
sg31
g5
sg32
g5
sg55
L0L
sg42
g5
sg44
g5
sa(dp363
g10
L0L
sg11
V@eff36cc855471110123e4bbf78e5208b1c6a64b64a3bb9e30ea271ec39818dff
p364
sg13
g5
sg36
L0L
sg27
g5
sg29
g5
sg31
g5
sg32
g5
sg55
L0L
sg42
g5
sg44
g5
sa(dp365
g10
L0L
sg11
V@803eb83e8cc25f1a61c9348df2e0dc75eac775dc67ba8909aa40379d9fc53a32
p366
sg13
g5
sg36
L0L
sg27
g5
sg29
g5
sg31
g5
sg32
g5
sg55
L0L
sg42
g5
sg44
g5
sa(dp367
g10
L0L
sg11
V@2226555e8b578ac933415b569bb99d071161341e0cbb6467b06fb4adb358a96c
p368
sg13
g5
sg36
L0L
sg27
g5
sg29
g5
sg31
g5
sg32
g5
sg55
L0L
sg42
g5
sg44
g5
sa(dp369
g10
L0L
sg11
V@9731ba42178119ffb98dcb21ac9e11a58d899f5da08d656da62aa16daa3aad99
p370
sg13
g5
sg36
L0L
sg27
g5
sg29
g5
sg31
g5
sg32
g5
sg55
L0L
sg42
g5
sg44
g5
sa(dp371
g10
L0L
sg11
V@0dd7153acb998f54981303275838b8f7
p372
sg13
g5
sg36
L0L
sg27
g5
sg29
g5
sg31
g5
sg32
g5
sg55
L0L
sg42
g5
sg44
Vqwe
p373
sa(dp374
g10
L0L
sg11
V@ba54c46cf16c42a5ee90c51c4a503bb2
p375
sg13
g5
sg36
L0L
sg27
g5
sg29
g5
sg31
g5
sg32
g5
sg55
L0L
sg42
g5
sg44
Vren
p376
sa(dp377
g10
L0L
sg11
V@830613af7acd6374ff6f648c9f3618864ca9116fea3bb9dce270578dcfcd029e
p378
sg13
g5
sg36
L0L
sg27
g5
sg29
g5
sg31
g5
sg32
g5
sg55
L0L
sg42
g5
sg44
g5
sa(dp379
g10
L0L
sg11
V@bde62f8556175916853bab619f59ced01c187945d7a359ef2cf228f7c1eca426
p380
sg13
g5
sg36
L0L
sg27
g5
sg29
g5
sg31
g5
sg32
g5
sg55
L0L
sg42
g5
sg44
g5
sa(dp381
g10
L0L
sg11
V@bc1694d5c2909090642382f9468fdd7653833c4d253f5f71a8079303bc579768
p382
sg13
g5
sg36
L0L
sg27
g5
sg29
g5
sg31
g5
sg32
g5
sg55
L0L
sg42
g5
sg44
g5
sa(dp383
g10
L0L
sg11
V@b96d6932be3ec65ad35a0ff802644491dd8cf8cd1fa2d7f51830782c72de7a31
p384
sg13
g5
sg36
L0L
sg27
g5
sg29
g5
sg31
g5
sg32
g5
sg55
L0L
sg42
g5
sg44
g5
sa(dp385
g10
L0L
sg11
V@97972fa261567d087966ef96e1fb94056e597f3ce66d1de17102c242c390efe9
p386
sg13
g5
sg36
L0L
sg27
g5
sg29
g5
sg31
g5
sg32
g5
sg55
L0L
sg42
g5
sg44
g5
sa(dp387
g10
L0L
sg11
V@6d4706c991b03d2b18a2de6a283f687057f56fac83e196c2be4807fadb235fd0
p388
sg13
g5
sg36
L0L
sg27
g5
sg29
g5
sg31
g5
sg32
g5
sg55
L0L
sg42
g5
sg44
g5
sa(dp389
g10
L0L
sg11
V@04d83abea2fe7b22ac6dbe92d4a0b58ede7736d26d157809d1f0f496c27512b9
p390
sg13
g5
sg36
L0L
sg27
g5
sg29
g5
sg31
g5
sg32
g5
sg55
L0L
sg42
g5
sg44
g5
sa(dp391
g10
L0L
sg11
V@8af5d42499141dab3d1d3b2bf3e41370
p392
sg13
g5
sg36
L0L
sg27
g5
sg29
g5
sg31
g5
sg32
g5
sg55
L0L
sg42
g5
sg44
Vqi0
p393
sa(dp394
g10
L0L
sg11
V@c7d7bf169f0e29d60305fdd633e306bd147842c8acb0e7235778ad12a499340a
p395
sg13
g5
sg36
L0L
sg27
g5
sg29
g5
sg31
g5
sg32
g5
sg55
L0L
sg42
g5
sg44
g5
sa(dp396
g10
L0L
sg11
V@43577af4887b01e116dbeb79d9563c6402f05150b87990534fc55ba5838a1ecc
p397
sg13
g5
sg36
L0L
sg27
g5
sg29
g5
sg31
g5
sg32
g5
sg55
L0L
sg42
g5
sg44
g5
sa(dp398
g10
L0L
sg11
V@9a5b330e1aa01a4ba5c6e0d892e16f7bb3166a0df324eaa3e201163d7c4bb327
p399
sg13
g5
sg36
L0L
sg27
g5
sg29
g5
sg31
g5
sg32
g5
sg55
L0L
sg42
g5
sg44
g5
sa(dp400
g10
L0L
sg11
V@722cd28a428c984eb362466d5c67ecd7
p401
sg13
g5
sg36
L0L
sg27
g5
sg29
g5
sg31
g5
sg32
g5
sg55
L0L
sg42
g5
sg44
Vlix
p402
sa(dp403
g10
L0L
sg11
V@e29b0ad794df9a72af3234f07c583a761ff8add6134b7e7ac3457cce21d4523a
p404
sg13
g5
sg36
L0L
sg27
g5
sg29
g5
sg31
g5
sg32
g5
sg55
L0L
sg42
g5
sg44
g5
sa(dp405
g10
L0L
sg11
V@34496c37089f0db7715bcd59563b0da09625ab22a413585d5037af3fe1df49c8
p406
sg13
g5
sg36
L0L
sg27
g5
sg29
g5
sg31
g5
sg32
g5
sg55
L0L
sg42
g5
sg44
g5
sa(dp407
g10
L0L
sg11
V@cadbc746500844073ff63366d6ee855bc2929753702e3dc4fda848c5a4373d4b
p408
sg13
g5
sg36
L0L
sg27
g5
sg29
g5
sg31
g5
sg32
g5
sg55
L0L
sg42
g5
sg44
g5
sa(dp409
g10
L0L
sg11
V@51ad451027ef202d8894ee4217b39a5f8dd890665ce2d05b5e79fa3066934a06
p410
sg13
g5
sg36
L0L
sg27
g5
sg29
g5
sg31
g5
sg32
g5
sg55
L0L
sg42
g5
sg44
g5
sa(dp411
g10
L0L
sg11
V@d2bc63e44e0c433f1b77d4a43c48d17cfd6d1447046b52c034db0b6b6e825d23
p412
sg13
g5
sg36
L0L
sg27
g5
sg29
g5
sg31
g5
sg32
g5
sg55
L0L
sg42
g5
sg44
g5
sa(dp413
g10
L0L
sg11
V@5a4e8fd1e333ec3fcc71361be3abba27
p414
sg13
g5
sg36
L0L
sg27
g5
sg29
g5
sg31
g5
sg32
g5
sg55
L0L
sg42
g5
sg44
Vbad
p415
sa(dp416
g10
L0L
sg11
V@0b47123b715e057a44646112c00280fc3225da8c186053fd725abbd994a18bba
p417
sg13
g5
sg36
L0L
sg27
g5
sg29
g5
sg31
g5
sg32
g5
sg55
L0L
sg42
g5
sg44
g5
sa(dp418
g10
L0L
sg11
V@104b37030086021196305689b65ac5bca3a1b6567cd6caf3f59d9c600845fbcd
p419
sg13
g5
sg36
L0L
sg27
g5
sg29
g5
sg31
g5
sg32
g5
sg55
L0L
sg42
g5
sg44
g5
sa(dp420
g10
L0L
sg11
V@55d83b7474ba12ca7dac050beba20c727b884d7fef4d513f0fd8ad7fb65ec5f3
p421
sg13
g5
sg36
L0L
sg27
g5
sg29
g5
sg31
g5
sg32
g5
sg55
L0L
sg42
g5
sg44
g5
sa(dp422
g10
L0L
sg11
V@c2165cc6dffd6c36de43b2fff49bc95f
p423
sg13
g5
sg36
L0L
sg27
g5
sg29
g5
sg31
g5
sg32
g5
sg55
L0L
sg42
g5
sg44
Vcao
p424
sa(dp425
g10
L0L
sg11
V@6173ef3da56719a4b096f267ad05509ea95adf71353fa4a5af046fcc9b8a1fb7
p426
sg13
g5
sg36
L0L
sg27
g5
sg29
g5
sg31
g5
sg32
g5
sg55
L0L
sg42
g5
sg44
g5
sa(dp427
g10
L0L
sg11
V@41527e208c95d8ab453117891e175081b1780999432aed012d0b75341c995693
p428
sg13
g5
sg36
L0L
sg27
g5
sg29
g5
sg31
g5
sg32
g5
sg55
L0L
sg42
g5
sg44
g5
sa(dp429
g10
L0L
sg11
V@c51bfb3dcab5e32254842c4e0206500c058d0e48469901946fe7be2195e97f6f
p430
sg13
g5
sg36
L0L
sg27
g5
sg29
g5
sg31
g5
sg32
g5
sg55
L0L
sg42
g5
sg44
g5
sa(dp431
g10
L0L
sg11
V@7248a40e050095e58c96f0e50b1b8c8a
p432
sg13
g5
sg36
L0L
sg27
g5
sg29
g5
sg31
g5
sg32
g5
sg55
L0L
sg42
g5
sg44
Vsai
p433
sa(dp434
g10
L0L
sg11
V@14a8772fcdcba0dabd31113c3520b1ab
p435
sg13
g5
sg36
L0L
sg27
g5
sg29
g5
sg31
g5
sg32
g5
sg55
L0L
sg42
g5
sg44
Vhon
p436
sa(dp437
g10
L0L
sg11
V@cf9169bcfed7ce6b7dd319685e0a45b78520bf24ff506be3b4d76822cb34b767
p438
sg13
g5
sg36
L0L
sg27
g5
sg29
g5
sg31
g5
sg32
g5
sg55
L0L
sg42
g5
sg44
Vlia
p439
sa(dp440
g10
L0L
sg11
V@459f3d075f5cf0452aa6da7744e4e43fdfae71d35cd0368d2b4066bc53b75af7
p441
sg13
g5
sg36
L0L
sg27
g5
sg29
g5
sg31
g5
sg32
g5
sg55
L0L
sg42
g5
sg44
g5
sa(dp442
g10
L0L
sg11
V@1a8a75fc3d57afd2a4c420cc11c74f0eaa46cc8c4901cedcb57e7f01bc02cf69
p443
sg13
g5
sg36
L0L
sg27
g5
sg29
g5
sg31
g5
sg32
g5
sg55
L0L
sg42
g5
sg44
g5
sa(dp444
g10
L0L
sg11
V@82ae3443d236354151d62e73c95fc7a3
p445
sg13
g5
sg36
L0L
sg27
g5
sg29
g5
sg31
g5
sg32
g5
sg55
L0L
sg42
g5
sg44
Vnan
p446
sa(dp447
g10
L0L
sg11
V@88ef331bd0528a0c6ecabcf7c98d6623a1be84fbbe56e6fa954c5aa7587b1099
p448
sg13
g5
sg36
L0L
sg27
g5
sg29
g5
sg31
g5
sg32
g5
sg55
L0L
sg42
g5
sg44
g5
sa(dp449
g10
L0L
sg11
V@4ec90ec5de9d9587c37c32594524b54168dd3e4f673942d8007d84563ba05a7b
p450
sg13
g5
sg36
L0L
sg27
g5
sg29
g5
sg31
g5
sg32
g5
sg55
L0L
sg42
g5
sg44
g5
sa(dp451
g10
L0L
sg11
V@98c398871209b3201ea9e236c59c551583a239f5e96e92c2659d04ca9689fa3e
p452
sg13
g5
sg36
L0L
sg27
g5
sg29
g5
sg31
g5
sg32
g5
sg55
L0L
sg42
g5
sg44
g5
sa(dp453
g10
L0L
sg11
V@dc06011698db4dd23fdb1b4680f03a877d851c15179f01e9084aed5b9a649153
p454
sg13
g5
sg36
L0L
sg27
g5
sg29
g5
sg31
g5
sg32
g5
sg55
L0L
sg42
g5
sg44
g5
sa(dp455
g10
L0L
sg11
V@1ec479dfde9fcae4290421a87444d9137e5ed398c7207651eae575da239c7efb
p456
sg13
g5
sg36
L0L
sg27
g5
sg29
g5
sg31
g5
sg32
g5
sg55
L0L
sg42
g5
sg44
g5
sa(dp457
g10
L0L
sg11
V@a6e1245888454e5b3d563e5421c1cee9b7e1f2c18bdf59eaf495b857b4c5a00b
p458
sg13
g5
sg36
L0L
sg27
g5
sg29
g5
sg31
g5
sg32
g5
sg55
L0L
sg42
g5
sg44
g5
sa(dp459
g10
L0L
sg11
V@14a0bf8dcb51fb79badf9d0d5605604fe303ee5d5cc5f798a41fe60405365ad8
p460
sg13
g5
sg36
L0L
sg27
g5
sg29
g5
sg31
g5
sg32
g5
sg55
L0L
sg42
g5
sg44
g5
sa(dp461
g10
L0L
sg11
V@4f62ec0af8bd422a8d55898a6a454feb7531c0d05f8d082e4ae6ff4f2fc1575e
p462
sg13
g5
sg36
L0L
sg27
g5
sg29
g5
sg31
g5
sg32
g5
sg55
L0L
sg42
g5
sg44
g5
sa(dp463
g10
L0L
sg11
V@b91daa90bfceccb60483112628c4965242ff579f850633623aa7eafd58d60c5b
p464
sg13
g5
sg36
L0L
sg27
g5
sg29
g5
sg31
g5
sg32
g5
sg55
L0L
sg42
g5
sg44
g5
sa(dp465
g10
L0L
sg11
V@7963dbf43e035b6deec562b0456f23d092ea5ab08977d05c91f4ac3ac422471f
p466
sg13
g5
sg36
L0L
sg27
g5
sg29
g5
sg31
g5
sg32
g5
sg55
L0L
sg42
g5
sg44
g5
sa(dp467
g10
L0L
sg11
V@6255fe41f82a0d00a088e7a9d7b96982
p468
sg13
g5
sg36
L0L
sg27
g5
sg29
g5
sg31
g5
sg32
g5
sg55
L0L
sg42
g5
sg44
Vxy1
p469
sa(dp470
g10
L0L
sg11
V@8e7054ec87bce6664c09f093c039ef3ba16092230ea1802bc0097a9bd2113acd
p471
sg13
g5
sg36
L0L
sg27
g5
sg29
g5
sg31
g5
sg32
g5
sg55
L0L
sg42
g5
sg44
g5
sa(dp472
g10
L0L
sg11
V@fce0321b5d987f30186b4c2739a96f983c5fc059c2ad47bb54336034f37c9de8
p473
sg13
g5
sg36
L0L
sg27
g5
sg29
g5
sg31
g5
sg32
g5
sg55
L0L
sg42
g5
sg44
g5
sa(dp474
g10
L0L
sg11
V@4bc0722861d3dcc23ca73533e489db58f63f8ea79851b12b6e7151c861abb5be
p475
sg13
g5
sg36
L0L
sg27
g5
sg29
g5
sg31
g5
sg32
g5
sg55
L0L
sg42
g5
sg44
g5
sa(dp476
g10
L0L
sg11
V@3557100398b4802fbdde0ac32db648f86a919742b6d4e076240c6b6afb84c7e7
p477
sg13
g5
sg36
L0L
sg27
g5
sg29
g5
sg31
g5
sg32
g5
sg55
L0L
sg42
g5
sg44
g5
sa(dp478
g10
L0L
sg11
V@8147407e57e155cc26897ba7271addcb7028f135a9bd0ad5a21ceb2a96c9bca9
p479
sg13
g5
sg36
L0L
sg27
g5
sg29
g5
sg31
g5
sg32
g5
sg55
L0L
sg42
g5
sg44
g5
sa(dp480
g10
L0L
sg11
V@fae36444666e0edc61b44099c530aee3
p481
sg13
g5
sg36
L0L
sg27
g5
sg29
g5
sg31
g5
sg32
g5
sg55
L0L
sg42
g5
sg44
Vkeh
p482
sa(dp483
g10
L0L
sg11
V@6c00983cee73c27d7a512a843259d3df6e6f32e02549d610edc4bd8842e3e851
p484
sg13
g5
sg36
L0L
sg27
g5
sg29
g5
sg31
g5
sg32
g5
sg55
L0L
sg42
g5
sg44
g5
sa(dp485
g10
L0L
sg11
V@5237a9164af7857024ed3a262403e2f3ddc04512112454abd2f8412ee34f5215
p486
sg13
g5
sg36
L0L
sg27
g5
sg29
g5
sg31
g5
sg32
g5
sg55
L0L
sg42
g5
sg44
g5
sa(dp487
g10
L0L
sg11
V@496e1c187536704a69a4dfa6a4859925b056dc6b3ab24d592d460c355c11b905
p488
sg13
g5
sg36
L0L
sg27
g5
sg29
g5
sg31
g5
sg32
g5
sg55
L0L
sg42
g5
sg44
g5
sa(dp489
g10
L0L
sg11
V@92eb94a84a759da25520ad5b810a511dbc189317b0aecf25a55a79ccec3d85fb
p490
sg13
g5
sg36
L0L
sg27
g5
sg29
g5
sg31
g5
sg32
g5
sg55
L0L
sg42
g5
sg44
g5
sa(dp491
g10
L0L
sg11
V@025a64f2c56003bc59b02381a1022ae2661d61b0b69305966bfed1e807886b4d
p492
sg13
g5
sg36
L0L
sg27
g5
sg29
g5
sg31
g5
sg32
g5
sg55
L0L
sg42
g5
sg44
g5
sa(dp493
g10
L0L
sg11
V@86e47f5a4c197ab70de78496788bb42a04d2c98cdbd6f4c337165fb1b36635c0
p494
sg13
g5
sg36
L0L
sg27
g5
sg29
g5
sg31
g5
sg32
g5
sg55
L0L
sg42
g5
sg44
g5
sa(dp495
g10
L0L
sg11
V@7574b7ec261330330e0d01725ab0d4ef
p496
sg13
g5
sg36
L0L
sg27
g5
sg29
g5
sg31
g5
sg32
g5
sg55
L0L
sg42
g5
sg44
Vcol
p497
sa(dp498
g10
L0L
sg11
V@a3fd201ae5cb5aec421f1293f613e0e5384ee5c3575bc0802b5651013d057703
p499
sg13
g5
sg36
L0L
sg27
g5
sg29
g5
sg31
g5
sg32
g5
sg55
L0L
sg42
g5
sg44
g5
sa(dp500
g10
L0L
sg11
V@016c94897d9be31cc1c5a3dc10e0e54000356a5b331419d5c268125f0316b3ae
p501
sg13
g5
sg36
L0L
sg27
g5
sg29
g5
sg31
g5
sg32
g5
sg55
L0L
sg42
g5
sg44
g5
sa(dp502
g10
L0L
sg11
V@e00c954ab60c1c8ff019643601cc29d20f1f5d494e2d8a47c892131392a92b20
p503
sg13
g5
sg36
L0L
sg27
g5
sg29
g5
sg31
g5
sg32
g5
sg55
L0L
sg42
g5
sg44
g5
sa(dp504
g10
L0L
sg11
V@c35c870a82d154eba2a1f10b775c1889551e8e45951aee3862082be6b3979f02
p505
sg13
g5
sg36
L0L
sg27
g5
sg29
g5
sg31
g5
sg32
g5
sg55
L0L
sg42
g5
sg44
g5
sa(dp506
g10
L0L
sg11
V@b48308be21600a92ebe2b64c990c57c6
p507
sg13
g5
sg36
L0L
sg27
g5
sg29
g5
sg31
g5
sg32
g5
sg55
L0L
sg42
g5
sg44
Vgan
p508
sa(dp509
g10
L0L
sg11
V@44c2813b53de243feb393e482cb21285b3fe2ef7e2f3c196d62fa958d1f8f2fb
p510
sg13
g5
sg36
L0L
sg27
g5
sg29
g5
sg31
g5
sg32
g5
sg55
L0L
sg42
g5
sg44
g5
sa(dp511
g10
L0L
sg11
V@cb88c2a40ce7582d3aab9d45e74401e6
p512
sg13
g5
sg36
L0L
sg27
g5
sg29
g5
sg31
g5
sg32
g5
sg55
L0L
sg42
g5
sg44
Vwmy
p513
sa(dp514
g10
L0L
sg11
V@b3cace9ec8167dd9b73dfb12cece4f159c753708ef264e72b1283b81d234b1a3
p515
sg13
g5
sg36
L0L
sg27
g5
sg29
g5
sg31
g5
sg32
g5
sg55
L0L
sg42
g5
sg44
g5
sa(dp516
g10
L0L
sg11
V@429b02c1c6a7619130727ecab8c482bd
p517
sg13
g5
sg36
L0L
sg27
g5
sg29
g5
sg31
g5
sg32
g5
sg55
L0L
sg42
g5
sg44
Vsni
p518
sa(dp519
g10
L0L
sg11
V@60446c7ab8ad243d8e6a1e333bcdd304a340ed44e1230d30dd97c29ad2a15510
p520
sg13
g5
sg36
L0L
sg27
g5
sg29
g5
sg31
g5
sg32
g5
sg55
L0L
sg42
g5
sg44
g5
sa(dp521
g10
L0L
sg11
V@c21991ed9c77527346299756ab20ba99f24734f244962a38dd6eea60ba641c7e
p522
sg13
g5
sg36
L0L
sg27
g5
sg29
g5
sg31
g5
sg32
g5
sg55
L0L
sg42
g5
sg44
g5
sa(dp523
g10
L0L
sg11
V@9aed5582e9afbb0dd5149812c428493632a8dff6c59f7b360c55752722a34271
p524
sg13
g5
sg36
L0L
sg27
g5
sg29
g5
sg31
g5
sg32
g5
sg55
L0L
sg42
g5
sg44
g5
sa(dp525
g10
L0L
sg11
V@254a3c6889ea84fe930b5764ab1c0668
p526
sg13
g5
sg36
L0L
sg27
g5
sg29
g5
sg31
g5
sg32
g5
sg55
L0L
sg42
g5
sg44
Vyue
p527
sa(dp528
g10
L0L
sg11
V@205d58168fc8d4ce6ed360f8bb855373
p529
sg13
g5
sg36
L0L
sg27
g5
sg29
g5
sg31
g5
sg32
g5
sg55
L0L
sg42
g5
sg44
Vdua
p530
sa(dp531
g10
L0L
sg11
V@3071f3a80087ec32012dd71f861f33d9
p532
sg13
g5
sg36
L0L
sg27
g5
sg29
g5
sg31
g5
sg32
g5
sg55
L0L
sg42
g5
sg44
Vyhw
p533
sa(dp534
g10
L0L
sg11
V@1b4a4382ba1ed7e0a6b26f691d012d1277962d462b9338b99cffced5c3004e66
p535
sg13
g5
sg36
L0L
sg27
g5
sg29
g5
sg31
g5
sg32
g5
sg55
L0L
sg42
g5
sg44
g5
sa(dp536
g10
L0L
sg11
V@8b9c55adf0b0bb43e5864dfcb1bd49303c7b9d632bd23e3b9f0404d7e1d78ace
p537
sg13
g5
sg36
L0L
sg27
g5
sg29
g5
sg31
g5
sg32
g5
sg55
L0L
sg42
g5
sg44
g5
sa(dp538
g10
L0L
sg11
V@eee87e070d746926e074911438c716b0
p539
sg13
g5
sg36
L0L
sg27
g5
sg29
g5
sg31
g5
sg32
g5
sg55
L0L
sg42
g5
sg44
VJes
p540
sa(dp541
g10
L0L
sg11
V@84f70bec216239f48b2e897a80e2173a4bf0d89ea63e22d08f4a259319cd9d10
p542
sg13
g5
sg36
L0L
sg27
g5
sg29
g5
sg31
g5
sg32
g5
sg55
L0L
sg42
g5
sg44
g5
sa(dp543
g10
L0L
sg11
V@89a3f770fc137a4ae2abd89304f4bedceb0e9d397a19b27e3f9b265d2789d431
p544
sg13
g5
sg36
L0L
sg27
g5
sg29
g5
sg31
g5
sg32
g5
sg55
L0L
sg42
g5
sg44
g5
sa(dp545
g10
L0L
sg11
V@3b73be15af91d79937ae178805258c3daad69d2ab2aa278a537036779894b95a
p546
sg13
g5
sg36
L0L
sg27
g5
sg29
g5
sg31
g5
sg32
g5
sg55
L0L
sg42
g5
sg44
g5
sa(dp547
g10
L0L
sg11
V@0331db3e2fefc7af859f04bb946c7508a0535728c090f37de54160785a683533
p548
sg13
g5
sg36
L0L
sg27
g5
sg29
g5
sg31
g5
sg32
g5
sg55
L0L
sg42
g5
sg44
g5
sa(dp549
g10
L0L
sg11
V@d173d0fc5065f25df3c71bbecc31d0d7b8d245408d0af5cfe48dbca8e3910e1d
p550
sg13
g5
sg36
L0L
sg27
g5
sg29
g5
sg31
g5
sg32
g5
sg55
L0L
sg42
g5
sg44
g5
sa(dp551
g10
L0L
sg11
V@b448e95dda9667ea28e4b908af562a6a
p552
sg13
g5
sg36
L0L
sg27
g5
sg29
g5
sg31
g5
sg32
g5
sg55
L0L
sg42
g5
sg44
Vluy
p553
sa(dp554
g10
L0L
sg11
V@9ef01ae765498d1596179d24eb7561bc
p555
sg13
g5
sg36
L0L
sg27
g5
sg29
g5
sg31
g5
sg32
g5
sg55
L0L
sg42
g5
sg44
Vkin
p556
sa(dp557
g10
L0L
sg11
V@46451692ef18809c574b96f0475c9b89180c2b238c071fecf9cbc1a05d3e114e
p558
sg13
g5
sg36
L0L
sg27
g5
sg29
g5
sg31
g5
sg32
g5
sg55
L0L
sg42
g5
sg44
g5
sa(dp559
g10
L0L
sg11
V@330b495c53c36102de63f697821855fe25c000fd6f5921b6b20e16967af320b1
p560
sg13
g5
sg36
L0L
sg27
g5
sg29
g5
sg31
g5
sg32
g5
sg55
L0L
sg42
g5
sg44
g5
sa(dp561
g10
L0L
sg11
V@ca8ead7cdaa1b13fa5fc94c9f683d241
p562
sg13
g5
sg36
L0L
sg27
g5
sg29
g5
sg31
g5
sg32
g5
sg55
L0L
sg42
g5
sg44
Va33
p563
sa(dp564
g10
L0L
sg11
V@47a0332144216c72e30c3580cd8235d3b2b329a863b41f27509e2fd226ebed42
p565
sg13
g5
sg36
L0L
sg27
g5
sg29
g5
sg31
g5
sg32
g5
sg55
L0L
sg42
g5
sg44
g5
sa(dp566
g10
L0L
sg11
V@16c94eec4386ff75ac936c337c88e70c
p567
sg13
g5
sg36
L0L
sg27
g5
sg29
g5
sg31
g5
sg32
g5
sg55
L0L
sg42
g5
sg44
Vman
p568
sa(dp569
g10
L0L
sg11
V@df24642026d8ff22a4f5e99471a6c177c5fa9c2dbca0606d24813ea9af0efd82
p570
sg13
g5
sg36
L0L
sg27
g5
sg29
g5
sg31
g5
sg32
g5
sg55
L0L
sg42
g5
sg44
g5
sa(dp571
g10
L0L
sg11
V@ec9b63983137e4e53499fb0bf808fa89de36d519b25f924f5a1a3eab2a1f6e6a
p572
sg13
g5
sg36
L0L
sg27
g5
sg29
g5
sg31
g5
sg32
g5
sg55
L0L
sg42
g5
sg44
g5
sa(dp573
g10
L0L
sg11
V@0fb64ddd0990766adf79d46f96674f9a3278310cce812e64896c50d16eacdf6a
p574
sg13
g5
sg36
L0L
sg27
g5
sg29
g5
sg31
g5
sg32
g5
sg55
L0L
sg42
g5
sg44
g5
sa(dp575
g10
L0L
sg11
V@e6dfb470a109f29ebffcd2da18f91310
p576
sg13
g5
sg36
L0L
sg27
g5
sg29
g5
sg31
g5
sg32
g5
sg55
L0L
sg42
g5
sg44
VGis
p577
sa(dp578
g10
L0L
sg11
V@3a3255f81d1672eb4a0cb08abc9db9cdbc1159d510671dcefbd5b2a562f0cd26
p579
sg13
g5
sg36
L0L
sg27
g5
sg29
g5
sg31
g5
sg32
g5
sg55
L0L
sg42
g5
sg44
g5
sa(dp580
g10
L0L
sg11
V@90f89a81ebc350c82541e4817d14ca38
p581
sg13
g5
sg36
L0L
sg27
g5
sg29
g5
sg31
g5
sg32
g5
sg55
L0L
sg42
g5
sg44
Vmyp
p582
sa(dp583
g10
L0L
sg11
V@3cbb162fac761cc9202cd7a9e5385ef6
p584
sg13
g5
sg36
L0L
sg27
g5
sg29
g5
sg31
g5
sg32
g5
sg55
L0L
sg42
g5
sg44
Vkan
p585
sa(dp586
g10
L0L
sg11
V@70b348654ce9c14bbdcc7c3ed649f7ec6355250b2e13fa837c07d4673052843b
p587
sg13
g5
sg36
L0L
sg27
g5
sg29
g5
sg31
g5
sg32
g5
sg55
L0L
sg42
g5
sg44
g5
sa(dp588
g10
L0L
sg11
V@ef6945346c8a7fd461c9402a2abc1802
p589
sg13
g5
sg36
L0L
sg27
g5
sg29
g5
sg31
g5
sg32
g5
sg55
L0L
sg42
g5
sg44
Vnan
p590
sa(dp591
g10
L0L
sg11
V@daec0461eb8a2523b6922a928f1a6462
p592
sg13
g5
sg36
L0L
sg27
g5
sg29
g5
sg31
g5
sg32
g5
sg55
L0L
sg42
g5
sg44
Vlix
p593
sa(dp594
g10
L0L
sg11
V@3ba4836812bca034289d3ee51cea0db800d419cffd4d682769425936fd7ba8f8
p595
sg13
g5
sg36
L0L
sg27
g5
sg29
g5
sg31
g5
sg32
g5
sg55
L0L
sg42
g5
sg44
g5
sa(dp596
g10
L0L
sg11
V@03eed573082522abdaade4d824884108
p597
sg13
g5
sg36
L0L
sg27
g5
sg29
g5
sg31
g5
sg32
g5
sg55
L0L
sg42
g5
sg44
Vcao
p598
sa(dp599
g10
L0L
sg11
V@f238ce48e27462710fe4b3c0c2c20f83f1717a9182e7e36834b0f15ee83f3224
p600
sg13
g5
sg36
L0L
sg27
g5
sg29
g5
sg31
g5
sg32
g5
sg55
L0L
sg42
g5
sg44
g5
sa(dp601
g10
L0L
sg11
V@e88cc466570d8154988d2b5a4fd76115
p602
sg13
g5
sg36
L0L
sg27
g5
sg29
g5
sg31
g5
sg32
g5
sg55
L0L
sg42
g5
sg44
Vsj1
p603
sa(dp604
g10
L0L
sg11
V@b7fc5c5bdf60f15abbefad2a172807cc9639628fd0c7e6e6d32056e31d264837
p605
sg13
g5
sg36
L0L
sg27
g5
sg29
g5
sg31
g5
sg32
g5
sg55
L0L
sg42
g5
sg44
g5
sa(dp606
g10
L0L
sg11
V@2cb67586dc7aaf2b0013555973111753250727842ba752986a4cc71f4bd799f8
p607
sg13
g5
sg36
L0L
sg27
g5
sg29
g5
sg31
g5
sg32
g5
sg55
L0L
sg42
g5
sg44
g5
sa(dp608
g10
L0L
sg11
V@ce22e18b408c54477f32440f444bf4e703b4e004c4bbdb0e76cea76c6fdece9a
p609
sg13
g5
sg36
L0L
sg27
g5
sg29
g5
sg31
g5
sg32
g5
sg55
L0L
sg42
g5
sg44
g5
sa(dp610
g10
L0L
sg11
V@8ab7c31985512fbfc7ceb65f8b388b4e40bcf7549f1a6e8b631e8e5ea5fe2fbd
p611
sg13
g5
sg36
L0L
sg27
g5
sg29
g5
sg31
g5
sg32
g5
sg55
L0L
sg42
g5
sg44
g5
sa(dp612
g10
L0L
sg11
V@743f7c61402bbcabf00a665c6b0b3e4f
p613
sg13
g5
sg36
L0L
sg27
g5
sg29
g5
sg31
g5
sg32
g5
sg55
L0L
sg42
g5
sg44
VBab
p614
sa(dp615
g10
L0L
sg11
V@59f49f4d8a84a47cd1d61f4da79face6
p616
sg13
g5
sg36
L0L
sg27
g5
sg29
g5
sg31
g5
sg32
g5
sg55
L0L
sg42
g5
sg44
Vwan
p617
sa(dp618
g10
L0L
sg11
V@78e18f783e56d46005733a781e9d42b5f7ef9d798faed8953c2b10fa60b4869e
p619
sg13
g5
sg36
L0L
sg27
g5
sg29
g5
sg31
g5
sg32
g5
sg55
L0L
sg42
g5
sg44
g5
sa(dp620
g10
L0L
sg11
V@d65b8c497c52c5e77a11702e601d70df1512cef4f7ec68c86258c5b3c1e72b40
p621
sg13
g5
sg36
L0L
sg27
g5
sg29
g5
sg31
g5
sg32
g5
sg55
L0L
sg42
g5
sg44
g5
sa(dp622
g10
L0L
sg11
V@68d8966ddc70a7b1e69a1947165375dbc10a0fc64e74f2614e430a35ca8d6475
p623
sg13
g5
sg36
L0L
sg27
g5
sg29
g5
sg31
g5
sg32
g5
sg55
L0L
sg42
g5
sg44
g5
sa(dp624
g10
L0L
sg11
V@5685823fba71b9a14e841c8d52b80ff3731f254cccc0536814fe8c6eea100c2b
p625
sg13
g5
sg36
L0L
sg27
g5
sg29
g5
sg31
g5
sg32
g5
sg55
L0L
sg42
g5
sg44
g5
sa(dp626
g10
L0L
sg11
V@bda2be00dac8171b573f97f7e2efab36
p627
sg13
g5
sg36
L0L
sg27
g5
sg29
g5
sg31
g5
sg32
g5
sg55
L0L
sg42
g5
sg44
Vjim
p628
sa(dp629
g10
L0L
sg11
V@6b11664cb2804d7256534e1b6cb6641ccfe26e964d642fcffad020f6074d2538
p630
sg13
g5
sg36
L0L
sg27
g5
sg29
g5
sg31
g5
sg32
g5
sg55
L0L
sg42
g5
sg44
g5
sa(dp631
g10
L0L
sg11
V@5fdfa5d21ecf36dc10ab3c6e86f37ae8be98ce0bcf52b5b8b7bf53fb90398d1e
p632
sg13
g5
sg36
L0L
sg27
g5
sg29
g5
sg31
g5
sg32
g5
sg55
L0L
sg42
g5
sg44
g5
sa(dp633
g10
L0L
sg11
V@3ae2dcdece0432171cc2169930f13b98d99dd01e9014657f9e3bdbb038b3cd50
p634
sg13
g5
sg36
L0L
sg27
g5
sg29
g5
sg31
g5
sg32
g5
sg55
L0L
sg42
g5
sg44
g5
sa(dp635
g10
L0L
sg11
V@dc9e7b72df01c88153b48910dead25f8b7510aadb47f1c80f51b53ece581b314
p636
sg13
g5
sg36
L0L
sg27
g5
sg29
g5
sg31
g5
sg32
g5
sg55
L0L
sg42
g5
sg44
g5
sa(dp637
g10
L0L
sg11
V@4921d6fd1bc1617fe1e5d6e3d1900452382f2b465096b11e9c003931a1f95f21
p638
sg13
g5
sg36
L0L
sg27
g5
sg29
g5
sg31
g5
sg32
g5
sg55
L0L
sg42
g5
sg44
g5
sa(dp639
g10
L0L
sg11
V@ce22f2b9186f136362d690030b567e9be39321d74452212ce19c0dcdf2bb01f6
p640
sg13
g5
sg36
L0L
sg27
g5
sg29
g5
sg31
g5
sg32
g5
sg55
L0L
sg42
g5
sg44
g5
sa(dp641
g10
L0L
sg11
V@5ac72d3d3e60b63fa6fbbc873f91e8a10f4d1beebcb2beb9a8da7e56f2a1c599
p642
sg13
g5
sg36
L0L
sg27
g5
sg29
g5
sg31
g5
sg32
g5
sg55
L0L
sg42
g5
sg44
g5
sa(dp643
g10
L0L
sg11
V@20eae2aa2a56228feee05bd610e0db2545a045887ec292dc84d568f10f6051dd
p644
sg13
g5
sg36
L0L
sg27
g5
sg29
g5
sg31
g5
sg32
g5
sg55
L0L
sg42
g5
sg44
g5
sa(dp645
g10
L0L
sg11
V@275eb797153b48038f1dbd743463dec9
p646
sg13
g5
sg36
L0L
sg27
g5
sg29
g5
sg31
g5
sg32
g5
sg55
L0L
sg42
g5
sg44
Vqq9
p647
sa(dp648
g10
L0L
sg11
V@0b3244278ccb1def5607654e835e0eafee754f84bd6bc5ec10394691760d621d
p649
sg13
g5
sg36
L0L
sg27
g5
sg29
g5
sg31
g5
sg32
g5
sg55
L0L
sg42
g5
sg44
g5
sa(dp650
g10
L0L
sg11
V@33af85c000f5664ca7c8f6a9a4e4b8306d590fefe82944dc07088924ee8ec3f3
p651
sg13
g5
sg36
L0L
sg27
g5
sg29
g5
sg31
g5
sg32
g5
sg55
L0L
sg42
g5
sg44
g5
sa(dp652
g10
L0L
sg11
V@84622cd90ece056b81c0e18f97d0bd49
p653
sg13
g5
sg36
L0L
sg27
g5
sg29
g5
sg31
g5
sg32
g5
sg55
L0L
sg42
g5
sg44
Vqq5
p654
sa(dp655
g10
L0L
sg11
V@e5a6c2f65f9bd512900476628bd6ab09097e3f4365667b57120ca50a89398b2c
p656
sg13
g5
sg36
L0L
sg27
g5
sg29
g5
sg31
g5
sg32
g5
sg55
L0L
sg42
g5
sg44
g5
sa(dp657
g10
L0L
sg11
V@b4ab776503a7ee251f8506aec1db5eac46fefd4d01a6bf638ca3af5f7dfb5a66
p658
sg13
g5
sg36
L0L
sg27
g5
sg29
g5
sg31
g5
sg32
g5
sg55
L0L
sg42
g5
sg44
g5
sa(dp659
g10
L0L
sg11
V@a63514a797f95a39a356f3d57c3e249faf9648963cd4a76d12297e95ab303d8e
p660
sg13
g5
sg36
L0L
sg27
g5
sg29
g5
sg31
g5
sg32
g5
sg55
L0L
sg42
g5
sg44
g5
sa(dp661
g10
L0L
sg11
V@a4ee3d71795184dfe5348c03a9ff2fc5a544a9af703f13ec62457b4b87a2e852
p662
sg13
g5
sg36
L0L
sg27
g5
sg29
g5
sg31
g5
sg32
g5
sg55
L0L
sg42
g5
sg44
g5
sa(dp663
g10
L0L
sg11
V@944c10dca1e9279237447207af6153d2
p664
sg13
g5
sg36
L0L
sg27
g5
sg29
g5
sg31
g5
sg32
g5
sg55
L0L
sg42
g5
sg44
Vwuz
p665
sa(dp666
g10
L0L
sg11
V@30e4204986539ccb148328d6a71b87af1d09249b2c545b228b853726a439af4f
p667
sg13
g5
sg36
L0L
sg27
g5
sg29
g5
sg31
g5
sg32
g5
sg55
L0L
sg42
g5
sg44
g5
sa(dp668
g10
L0L
sg11
V@e4fa086db52c885b6a9a5cf8fbcf857020e865c60863159d444eea8a4dff995d
p669
sg13
g5
sg36
L0L
sg27
g5
sg29
g5
sg31
g5
sg32
g5
sg55
L0L
sg42
g5
sg44
Vjia
p670
sa(dp671
g10
L0L
sg11
V@6be746241c48593da21534ce5f7a2473
p672
sg13
g5
sg36
L0L
sg27
g5
sg29
g5
sg31
g5
sg32
g5
sg55
L0L
sg42
g5
sg44
VYYH
p673
sa(dp674
g10
L0L
sg11
V@8ba493ee8363d5a9538244338ad47528371e81a923cac792139ea98b5b839b0a
p675
sg13
g5
sg36
L0L
sg27
g5
sg29
g5
sg31
g5
sg32
g5
sg55
L0L
sg42
g5
sg44
g5
sa(dp676
g10
L0L
sg11
V@801b68bd2fecfff33fbb3d993f041e12
p677
sg13
g5
sg36
L0L
sg27
g5
sg29
g5
sg31
g5
sg32
g5
sg55
L0L
sg42
g5
sg44
Vhua
p678
sa(dp679
g10
L0L
sg11
V@8819db4fd880499c496bda23672c11565813ac0a5087080f840ce0cd921f6364
p680
sg13
g5
sg36
L0L
sg27
g5
sg29
g5
sg31
g5
sg32
g5
sg55
L0L
sg42
g5
sg44
g5
sa(dp681
g10
L0L
sg11
V@2dfe5872d6096bcbda59f07d0de2de0661cedb9645e502ff65855bdbc7187048
p682
sg13
g5
sg36
L0L
sg27
g5
sg29
g5
sg31
g5
sg32
g5
sg55
L0L
sg42
g5
sg44
Vjia
p683
sa(dp684
g10
L0L
sg11
V@9b707d6b00434df86691731b2ef5a303dde445d32e8ce47ac2c4b1d1d4704e74
p685
sg13
g5
sg36
L0L
sg27
g5
sg29
g5
sg31
g5
sg32
g5
sg55
L0L
sg42
g5
sg44
g5
sa(dp686
g10
L0L
sg11
V@0798f1480d73bd73813a924e49c8b9d225c5cc6f0a5aec800a2e2fe7e63d36dc
p687
sg13
g5
sg36
L0L
sg27
g5
sg29
g5
sg31
g5
sg32
g5
sg55
L0L
sg42
g5
sg44
g5
sa(dp688
g10
L0L
sg11
V@ba9973e17d63c5f0247c5fa222dcdfa42d0b5acb5da70f578bd942bcf51d572d
p689
sg13
g5
sg36
L0L
sg27
g5
sg29
g5
sg31
g5
sg32
g5
sg55
L0L
sg42
g5
sg44
g5
sa(dp690
g10
L0L
sg11
V@48140c2b147131947621f2a4d2ff18fc
p691
sg13
g5
sg36
L0L
sg27
g5
sg29
g5
sg31
g5
sg32
g5
sg55
L0L
sg42
g5
sg44
Vfug
p692
sa(dp693
g10
L0L
sg11
V@4db2bed137cf57c3f658c80a9619bad8
p694
sg13
g5
sg36
L0L
sg27
g5
sg29
g5
sg31
g5
sg32
g5
sg55
L0L
sg42
g5
sg44
Vwnz
p695
sa(dp696
g10
L0L
sg11
V@c024b6b24a8c1606d2e204aecc5b6daf0d89dca880c7a59089e88e74208adcd6
p697
sg13
g5
sg36
L0L
sg27
g5
sg29
g5
sg31
g5
sg32
g5
sg55
L0L
sg42
g5
sg44
g5
sa(dp698
g10
L0L
sg11
V@9eb9307838de4fbeb0929060e3593209ead6367d175cc4c450a0bce854c69d33
p699
sg13
g5
sg36
L0L
sg27
g5
sg29
g5
sg31
g5
sg32
g5
sg55
L0L
sg42
g5
sg44
g5
sa(dp700
g10
L0L
sg11
V@abcfc95b65e622d127443c51b3dd2021
p701
sg13
g5
sg36
L0L
sg27
g5
sg29
g5
sg31
g5
sg32
g5
sg55
L0L
sg42
g5
sg44
Vzjc
p702
sa(dp703
g10
L0L
sg11
V@1f85155be09f7061ad1f9b5fef2a137b
p704
sg13
g5
sg36
L0L
sg27
g5
sg29
g5
sg31
g5
sg32
g5
sg55
L0L
sg42
g5
sg44
Vxia
p705
sa(dp706
g10
L0L
sg11
V@78a03343dcd3f6de66cf24f2da933cfd156a0feddb1ede45d4b2bff88a2a02ba
p707
sg13
g5
sg36
L0L
sg27
g5
sg29
g5
sg31
g5
sg32
g5
sg55
L0L
sg42
g5
sg44
g5
sa(dp708
g10
L0L
sg11
V@6042e2a947bbd08f4bdbaf44e52da4da271d50cc6044a1adfc5b44bafb4919a0
p709
sg13
g5
sg36
L0L
sg27
g5
sg29
g5
sg31
g5
sg32
g5
sg55
L0L
sg42
g5
sg44
g5
sa(dp710
g10
L0L
sg11
V@499411c057c1d139c680fcf130e1fd64ec3af4871f62b8fb1a3ef2388857fee1
p711
sg13
g5
sg36
L0L
sg27
g5
sg29
g5
sg31
g5
sg32
g5
sg55
L0L
sg42
g5
sg44
g5
sa(dp712
g10
L0L
sg11
V@a93a56051370f10d3ea8e82607d618978eb139c1961ec85a872b7f05b57a4451
p713
sg13
g5
sg36
L0L
sg27
g5
sg29
g5
sg31
g5
sg32
g5
sg55
L0L
sg42
g5
sg44
g5
sa(dp714
g10
L0L
sg11
V@67dcc7c964da1bdb669899c366aa012e
p715
sg13
g5
sg36
L0L
sg27
g5
sg29
g5
sg31
g5
sg32
g5
sg55
L0L
sg42
g5
sg44
Vjia
p716
sa(dp717
g10
L0L
sg11
V@45525117f9a62ff8f6681fe9e95bb76e
p718
sg13
g5
sg36
L0L
sg27
g5
sg29
g5
sg31
g5
sg32
g5
sg55
L0L
sg42
g5
sg44
Vdon
p719
sa(dp720
g10
L0L
sg11
V@4319ef214f1259741bbf1527f199a993
p721
sg13
g5
sg36
L0L
sg27
g5
sg29
g5
sg31
g5
sg32
g5
sg55
L0L
sg42
g5
sg44
VMRt
p722
sa(dp723
g10
L0L
sg11
V@66be90b0f386660e2132f1f0d4ba655a712ff87d647abdc14d594bdc65d64f68
p724
sg13
g5
sg36
L0L
sg27
g5
sg29
g5
sg31
g5
sg32
g5
sg55
L0L
sg42
g5
sg44
g5
sa(dp725
g10
L0L
sg11
V@b47024aa7a22049f01d9bb732baafe3e
p726
sg13
g5
sg36
L0L
sg27
g5
sg29
g5
sg31
g5
sg32
g5
sg55
L0L
sg42
g5
sg44
Vblu
p727
sa(dp728
g10
L0L
sg11
V@9c438879eefcfe3738293d61a5f9142b1bee0ed1de1f46e1f930dc4e14dea51e
p729
sg13
g5
sg36
L0L
sg27
g5
sg29
g5
sg31
g5
sg32
g5
sg55
L0L
sg42
g5
sg44
g5
sa(dp730
g10
L0L
sg11
V@6ab5d9f2894cd1d54e5b19d2bfcb6498
p731
sg13
g5
sg36
L0L
sg27
g5
sg29
g5
sg31
g5
sg32
g5
sg55
L0L
sg42
g5
sg44
Vjia
p732
sa(dp733
g10
L0L
sg11
V@ff2dcdecdb7834a259c7353eabc9f598
p734
sg13
g5
sg36
L0L
sg27
g5
sg29
g5
sg31
g5
sg32
g5
sg55
L0L
sg42
g5
sg44
Vsun
p735
sa(dp736
g10
L0L
sg11
V@b2eeafa3273236145282317dbb71b8fe085bbfa7f48f1364bebc6c38c7266b66
p737
sg13
g5
sg36
L0L
sg27
g5
sg29
g5
sg31
g5
sg32
g5
sg55
L0L
sg42
g5
sg44
Vwos
p738
sa(dp739
g10
L0L
sg11
V@65bcf97d1b94e0c71dc5a5129fab37bb
p740
sg13
g5
sg36
L0L
sg27
g5
sg29
g5
sg31
g5
sg32
g5
sg55
L0L
sg42
g5
sg44
Va27
p741
sa(dp742
g10
L0L
sg11
V@a0bd1ef554b072b507851dad9decf8e31e560751690475cc97d81aa71d855014
p743
sg13
g5
sg36
L0L
sg27
g5
sg29
g5
sg31
g5
sg32
g5
sg55
L0L
sg42
g5
sg44
g5
sa(dp744
g10
L0L
sg11
V@921ad3f6060a0d365c620a8513a7f5fdeb8a2c041a4ea504ecc5cbb03eb0178e
p745
sg13
g5
sg36
L0L
sg27
g5
sg29
g5
sg31
g5
sg32
g5
sg55
L0L
sg42
g5
sg44
g5
sa(dp746
g10
L0L
sg11
V@c4dc5efe133349ff459ce0cc8d72bb8f
p747
sg13
g5
sg36
L0L
sg27
g5
sg29
g5
sg31
g5
sg32
g5
sg55
L0L
sg42
g5
sg44
Vhep
p748
sa(dp749
g10
L0L
sg11
V@51dd78f62c762848c426952400a61a90164f42bb1ae3ccbb8bb90ac5789bba5e
p750
sg13
g5
sg36
L0L
sg27
g5
sg29
g5
sg31
g5
sg32
g5
sg55
L0L
sg42
g5
sg44
g5
sa(dp751
g10
L0L
sg11
V@093d0ce2aeb8be885044379f86fbab8954dd330e49007272d6439f2096d2609f
p752
sg13
g5
sg36
L0L
sg27
g5
sg29
g5
sg31
g5
sg32
g5
sg55
L0L
sg42
g5
sg44
g5
sa(dp753
g10
L0L
sg11
V@0c97a611aae92b370f5325a98ba1a41104c3ccf164e813b41dbc1df8053d927b
p754
sg13
g5
sg36
L0L
sg27
g5
sg29
g5
sg31
g5
sg32
g5
sg55
L0L
sg42
g5
sg44
g5
sa(dp755
g10
L0L
sg11
V@f6978ad828c8c96da722df9722d5f660
p756
sg13
g5
sg36
L0L
sg27
g5
sg29
g5
sg31
g5
sg32
g5
sg55
L0L
sg42
g5
sg44
Vshe
p757
sa(dp758
g10
L0L
sg11
V@a70c600555036eeae119eade504ccbe6965740154ed76a18ff8abd809e133c1a
p759
sg13
g5
sg36
L0L
sg27
g5
sg29
g5
sg31
g5
sg32
g5
sg55
L0L
sg42
g5
sg44
g5
sa(dp760
g10
L0L
sg11
V@1850dfce7a2306acb0c91e39aa8905cfaa3ebdc9abe6e48eb2fd44c7de8edde6
p761
sg13
g5
sg36
L0L
sg27
g5
sg29
g5
sg31
g5
sg32
g5
sg55
L0L
sg42
g5
sg44
g5
sa(dp762
g10
L0L
sg11
V@227bbc002e0994ebce0c73fbf9621b56
p763
sg13
g5
sg36
L0L
sg27
g5
sg29
g5
sg31
g5
sg32
g5
sg55
L0L
sg42
g5
sg44
Vxia
p764
sa(dp765
g10
L0L
sg11
V@98a42864ba6663e0b304417060be5033aec1a2836f274a6ac1829139f28ce1de
p766
sg13
g5
sg36
L0L
sg27
g5
sg29
g5
sg31
g5
sg32
g5
sg55
L0L
sg42
g5
sg44
Vliu
p767
sa(dp768
g10
L0L
sg11
V@36500a3104c3407429607708662a1287f210e57f63152c0481b1cad090ccff4d
p769
sg13
g5
sg36
L0L
sg27
g5
sg29
g5
sg31
g5
sg32
g5
sg55
L0L
sg42
g5
sg44
g5
sa(dp770
g10
L0L
sg11
V@4f82460126c061998a4d39ac37f72cdf
p771
sg13
g5
sg36
L0L
sg27
g5
sg29
g5
sg31
g5
sg32
g5
sg55
L0L
sg42
g5
sg44
VAka
p772
sa(dp773
g10
L0L
sg11
V@f7136c74a7ce6bfb6f758b4d7f069037
p774
sg13
g5
sg36
L0L
sg27
g5
sg29
g5
sg31
g5
sg32
g5
sg55
L0L
sg42
g5
sg44
Vdin
p775
sa(dp776
g10
L0L
sg11
V@a67bea5264e86d8649d0bca913878d56
p777
sg13
g5
sg36
L0L
sg27
g5
sg29
g5
sg31
g5
sg32
g5
sg55
L0L
sg42
g5
sg44
Vche
p778
sa(dp779
g10
L0L
sg11
V@d6696cda016376e3ea939797c514f356
p780
sg13
g5
sg36
L0L
sg27
g5
sg29
g5
sg31
g5
sg32
g5
sg55
L0L
sg42
g5
sg44
Vsty
p781
sa(dp782
g10
L0L
sg11
V@7cac206cd8ac912234ba44a05cdf1c4c0de07f57191db090ee9c9b9db1998cb2
p783
sg13
g5
sg36
L0L
sg27
g5
sg29
g5
sg31
g5
sg32
g5
sg55
L0L
sg42
g5
sg44
g5
sa(dp784
g10
L0L
sg11
V@a8f81f1e9997ef9def21db6c5c0ffbb4d6124648eacc6d761fa7c7285dbc3b03
p785
sg13
g5
sg36
L0L
sg27
g5
sg29
g5
sg31
g5
sg32
g5
sg55
L0L
sg42
g5
sg44
g5
sa(dp786
g10
L0L
sg11
V@a14ca34bddf43867f37de1f3890285822824c82a508c0dadaf8f99be548bf5fb
p787
sg13
g5
sg36
L0L
sg27
g5
sg29
g5
sg31
g5
sg32
g5
sg55
L0L
sg42
g5
sg44
g5
sa(dp788
g10
L0L
sg11
V@382c47e0fed86ae198d51c005762e182
p789
sg13
g5
sg36
L0L
sg27
g5
sg29
g5
sg31
g5
sg32
g5
sg55
L0L
sg42
g5
sg44
Vsha
p790
sa(dp791
g10
L0L
sg11
V@564a31d88289ffbd2b177d3d5ed6ebfd04d4a790be774e9f0f1815c687c92fa0
p792
sg13
g5
sg36
L0L
sg27
g5
sg29
g5
sg31
g5
sg32
g5
sg55
L0L
sg42
g5
sg44
g5
sa(dp793
g10
L0L
sg11
V@fd738ce1f70e83397ceb806ff1c82c2d0ca4ac14d1289c27692aba19aebc5573
p794
sg13
g5
sg36
L0L
sg27
g5
sg29
g5
sg31
g5
sg32
g5
sg55
L0L
sg42
g5
sg44
g5
sa(dp795
g10
L0L
sg11
V@6e0c6021a87a000cb7a16a2ce7101611ff3e93c3252d5b16c3f704271fdb1217
p796
sg13
g5
sg36
L0L
sg27
g5
sg29
g5
sg31
g5
sg32
g5
sg55
L0L
sg42
g5
sg44
g5
sa(dp797
g10
L0L
sg11
V@8d9f639620dc498ae99f50e43d4b38bb
p798
sg13
g5
sg36
L0L
sg27
g5
sg29
g5
sg31
g5
sg32
g5
sg55
L0L
sg42
g5
sg44
Vzb2
p799
sa(dp800
g10
L0L
sg11
V@9c4bfd55c3875279b2fee9876662f52d2eb19ce1f9bc4c3fb72addd5c8dd48f7
p801
sg13
g5
sg36
L0L
sg27
g5
sg29
g5
sg31
g5
sg32
g5
sg55
L0L
sg42
g5
sg44
g5
sa(dp802
g10
L0L
sg11
V@e598b8c8fefe8116827993867d6afad9
p803
sg13
g5
sg36
L0L
sg27
g5
sg29
g5
sg31
g5
sg32
g5
sg55
L0L
sg42
g5
sg44
Vjhq
p804
sa(dp805
g10
L0L
sg11
V@a8b8f4394a9d231c37ac5a16a8c20ece
p806
sg13
g5
sg36
L0L
sg27
g5
sg29
g5
sg31
g5
sg32
g5
sg55
L0L
sg42
g5
sg44
Vyan
p807
sa(dp808
g10
L0L
sg11
V@a6114a24ae61c7a9b7b552e1ae885d8fe3bb24a2c7b11e51b326c0e16d10b810
p809
sg13
g5
sg36
L0L
sg27
g5
sg29
g5
sg31
g5
sg32
g5
sg55
L0L
sg42
g5
sg44
g5
sa(dp810
g10
L0L
sg11
V@5f88d73fcd7ae51680a5bbb9c6dd4994
p811
sg13
g5
sg36
L0L
sg27
g5
sg29
g5
sg31
g5
sg32
g5
sg55
L0L
sg42
g5
sg44
Vyan
p812
sa(dp813
g10
L0L
sg11
V@5851d63db6f89f7ee67a7d6e6bca093a53375c088217e85c59a864d5344ef250
p814
sg13
g5
sg36
L0L
sg27
g5
sg29
g5
sg31
g5
sg32
g5
sg55
L0L
sg42
g5
sg44
g5
sa(dp815
g10
L0L
sg11
V@b8c731e883eb6098d580609f3cf1b1d2
p816
sg13
g5
sg36
L0L
sg27
g5
sg29
g5
sg31
g5
sg32
g5
sg55
L0L
sg42
g5
sg44
Vykl
p817
sa(dp818
g10
L0L
sg11
V@e9ad3356f8472f97f09516c4aae9106ea548627e743d4b42e7d5d89bfc993e53
p819
sg13
g5
sg36
L0L
sg27
g5
sg29
g5
sg31
g5
sg32
g5
sg55
L0L
sg42
g5
sg44
g5
sa(dp820
g10
L0L
sg11
V@185e55e43835d2f4b5228e60a61e1e8771955d1513445d82a4ea3feeaea45cb4
p821
sg13
g5
sg36
L0L
sg27
g5
sg29
g5
sg31
g5
sg32
g5
sg55
L0L
sg42
g5
sg44
g5
sa(dp822
g10
L0L
sg11
V@f4af437ce95d99045263910124a519164bcef28e06143406ed674ff6d6d7efa2
p823
sg13
g5
sg36
L0L
sg27
g5
sg29
g5
sg31
g5
sg32
g5
sg55
L0L
sg42
g5
sg44
g5
sa(dp824
g10
L0L
sg11
V@d029d31c2563b032065d88e63e3494d44e58926024e99783d059b069383acba7
p825
sg13
g5
sg36
L0L
sg27
g5
sg29
g5
sg31
g5
sg32
g5
sg55
L0L
sg42
g5
sg44
g5
sa(dp826
g10
L0L
sg11
V@77bdd7b34271cc895d41daf45b6c0638
p827
sg13
g5
sg36
L0L
sg27
g5
sg29
g5
sg31
g5
sg32
g5
sg55
L0L
sg42
g5
sg44
Vhat
p828
sa(dp829
g10
L0L
sg11
V@bc243836c340d7f52e660becbde330303ba0dc24814a5aec57602c156e5f9a5c
p830
sg13
g5
sg36
L0L
sg27
g5
sg29
g5
sg31
g5
sg32
g5
sg55
L0L
sg42
g5
sg44
g5
sa(dp831
g10
L0L
sg11
V@c8cbd9af0f522c40efc95fc68ca9765ea06b8a9c3c819c59b70be7f372f5a33b
p832
sg13
g5
sg36
L0L
sg27
g5
sg29
g5
sg31
g5
sg32
g5
sg55
L0L
sg42
g5
sg44
g5
sa(dp833
g10
L0L
sg11
V@56d93927f60b843be87f51cc227ea649fcf2a999d23ef2fba3cb8cce7fa97a5e
p834
sg13
g5
sg36
L0L
sg27
g5
sg29
g5
sg31
g5
sg32
g5
sg55
L0L
sg42
g5
sg44
g5
sa(dp835
g10
L0L
sg11
V@a4b85e27d8eddc84115778584c875c4a
p836
sg13
g5
sg36
L0L
sg27
g5
sg29
g5
sg31
g5
sg32
g5
sg55
L0L
sg42
g5
sg44
Vgao
p837
sa(dp838
g10
L0L
sg11
V@2f56fd545ee91c86b4dc4beac9b1c2b9fcd1afbdcb3cbbf578e9b92b82c86b8b
p839
sg13
g5
sg36
L0L
sg27
g5
sg29
g5
sg31
g5
sg32
g5
sg55
L0L
sg42
g5
sg44
g5
sa(dp840
g10
L0L
sg11
V@ec7a16713a97235a8e2daccf1837fa9b2feb2d97d3b932d72fa52ee75f81a083
p841
sg13
g5
sg36
L0L
sg27
g5
sg29
g5
sg31
g5
sg32
g5
sg55
L0L
sg42
g5
sg44
g5
sa(dp842
g10
L0L
sg11
V@45851cf56f4ab886cc1a45a5c314a8221044741487c98c0e67b7313ae4d76f26
p843
sg13
g5
sg36
L0L
sg27
g5
sg29
g5
sg31
g5
sg32
g5
sg55
L0L
sg42
g5
sg44
g5
sa(dp844
g10
L0L
sg11
V@13b5616498fb2701e532bbd962638c90
p845
sg13
g5
sg36
L0L
sg27
g5
sg29
g5
sg31
g5
sg32
g5
sg55
L0L
sg42
g5
sg44
Vhi5
p846
sa(dp847
g10
L0L
sg11
V@407cc9aeef49ab0e8b0ecdc6885efe22d158252aa7e0525615c5b01892f98b48
p848
sg13
g5
sg36
L0L
sg27
g5
sg29
g5
sg31
g5
sg32
g5
sg55
L0L
sg42
g5
sg44
g5
sa(dp849
g10
L0L
sg11
V@57ada1395d8e68eef0ab74287d828a3d45cc8075dbab09cc7fdfbe6af5b4771b
p850
sg13
g5
sg36
L0L
sg27
g5
sg29
g5
sg31
g5
sg32
g5
sg55
L0L
sg42
g5
sg44
g5
sa(dp851
g10
L0L
sg11
V@4707250d6671acef26dc4419c0c152fa
p852
sg13
g5
sg36
L0L
sg27
g5
sg29
g5
sg31
g5
sg32
g5
sg55
L0L
sg42
g5
sg44
Vqq_
p853
sa(dp854
g10
L0L
sg11
V@140b811af0df77223f3c60aeed75f753c56422c67a0f73b0e27af559a9d1f044
p855
sg13
g5
sg36
L0L
sg27
g5
sg29
g5
sg31
g5
sg32
g5
sg55
L0L
sg42
g5
sg44
g5
sa(dp856
g10
L0L
sg11
V@cdbfaf1231f4730e6ad676a2b34261c37b5a49bb1687d711af048d34fd35c5f0
p857
sg13
g5
sg36
L0L
sg27
g5
sg29
g5
sg31
g5
sg32
g5
sg55
L0L
sg42
g5
sg44
g5
sa(dp858
g10
L0L
sg11
V@f38c11f7209245715fa399a6194e7af5
p859
sg13
g5
sg36
L0L
sg27
g5
sg29
g5
sg31
g5
sg32
g5
sg55
L0L
sg42
g5
sg44
Vdon
p860
sa(dp861
g10
L0L
sg11
V@503973e298dc87d15e72a1e63080738f
p862
sg13
g5
sg36
L0L
sg27
g5
sg29
g5
sg31
g5
sg32
g5
sg55
L0L
sg42
g5
sg44
Vwei
p863
sa(dp864
g10
L0L
sg11
V@e2fc75693350a89efbb378c7b0bd62096706a6ef9aadd709483d7fac171b8899
p865
sg13
g5
sg36
L0L
sg27
g5
sg29
g5
sg31
g5
sg32
g5
sg55
L0L
sg42
g5
sg44
g5
sa(dp866
g10
L0L
sg11
V@c894dcc1755a7ccea1e7c5c934bd3ef2
p867
sg13
g5
sg36
L0L
sg27
g5
sg29
g5
sg31
g5
sg32
g5
sg55
L0L
sg42
g5
sg44
Vbei
p868
sa(dp869
g10
L0L
sg11
V@3c37cd55499018d0fa890c722dfd4cf1a77f570ca339c157d4aa921e648d7c57
p870
sg13
g5
sg36
L0L
sg27
g5
sg29
g5
sg31
g5
sg32
g5
sg55
L0L
sg42
g5
sg44
g5
sa(dp871
g10
L0L
sg11
V@d671b6836b085c08fe3446237a1f3f69
p872
sg13
g5
sg36
L0L
sg27
g5
sg29
g5
sg31
g5
sg32
g5
sg55
L0L
sg42
g5
sg44
Vli-
p873
sa(dp874
g10
L0L
sg11
V@eac31e705ec251b1ad430d954894a179a8ef6ebf7417e29007d7bc613a3436e7
p875
sg13
g5
sg36
L0L
sg27
g5
sg29
g5
sg31
g5
sg32
g5
sg55
L0L
sg42
g5
sg44
g5
sa(dp876
g10
L0L
sg11
V@35ed1ea632fdef4ad8fa63f8da24d7f4
p877
sg13
g5
sg36
L0L
sg27
g5
sg29
g5
sg31
g5
sg32
g5
sg55
L0L
sg42
g5
sg44
Vwyt
p878
sa(dp879
g10
L0L
sg11
V@9bbb9ec598262b74d18244cc074e053557a5036be67932bcbd17a9d1e1fd54d9
p880
sg13
g5
sg36
L0L
sg27
g5
sg29
g5
sg31
g5
sg32
g5
sg55
L0L
sg42
g5
sg44
g5
sa(dp881
g10
L0L
sg11
V@ec3cf343a6ff448c0e379ef0dd7b47fd2b33afa54957b491926493745636e784
p882
sg13
g5
sg36
L0L
sg27
g5
sg29
g5
sg31
g5
sg32
g5
sg55
L0L
sg42
g5
sg44
g5
sa(dp883
g10
L0L
sg11
V@6bfd1f5efb7266d95b16d3f5ca9e0e858a01b15b73f052a348c87bdc06132dc1
p884
sg13
g5
sg36
L0L
sg27
g5
sg29
g5
sg31
g5
sg32
g5
sg55
L0L
sg42
g5
sg44
g5
sa(dp885
g10
L0L
sg11
V@246819bfb2675b84d9c049dfa7be53ebea43d025914e7058f4e770e2873561e2
p886
sg13
g5
sg36
L0L
sg27
g5
sg29
g5
sg31
g5
sg32
g5
sg55
L0L
sg42
g5
sg44
g5
sa(dp887
g10
L0L
sg11
V@c474f901606222563b220e362e3277ab3dc4a585953443582b1700d7218d818e
p888
sg13
g5
sg36
L0L
sg27
g5
sg29
g5
sg31
g5
sg32
g5
sg55
L0L
sg42
g5
sg44
g5
sa(dp889
g10
L0L
sg11
V@578378a3e2bb98c1264a6b1d807587704b315a94790cd2fd8d19a691e139d522
p890
sg13
g5
sg36
L0L
sg27
g5
sg29
g5
sg31
g5
sg32
g5
sg55
L0L
sg42
g5
sg44
g5
sa(dp891
g10
L0L
sg11
V@d1d5f98dd59457bcfd482cacaeb2a9b450eebeacbee5b42f23c0de8028795ce4
p892
sg13
g5
sg36
L0L
sg27
g5
sg29
g5
sg31
g5
sg32
g5
sg55
L0L
sg42
g5
sg44
g5
sa(dp893
g10
L0L
sg11
V@f13d32bced2c247de661f737c649f44f38817f84c79448d293be17d210d225c6
p894
sg13
g5
sg36
L0L
sg27
g5
sg29
g5
sg31
g5
sg32
g5
sg55
L0L
sg42
g5
sg44
g5
sa(dp895
g10
L0L
sg11
V@299dff335954e732a03f33b9d17113c05a2baff010f676aba21ee11633ac962f
p896
sg13
g5
sg36
L0L
sg27
g5
sg29
g5
sg31
g5
sg32
g5
sg55
L0L
sg42
g5
sg44
g5
sa(dp897
g10
L0L
sg11
V@aaf39cf2747d02ddd009a9bc64ac276a
p898
sg13
g5
sg36
L0L
sg27
g5
sg29
g5
sg31
g5
sg32
g5
sg55
L0L
sg42
g5
sg44
Vlov
p899
sa(dp900
g10
L0L
sg11
V@a1cc7280a069bd8b5f48ae1542530101e5811962689a4296bea28ff18122fc58
p901
sg13
g5
sg36
L0L
sg27
g5
sg29
g5
sg31
g5
sg32
g5
sg55
L0L
sg42
g5
sg44
g5
sa(dp902
g10
L0L
sg11
V@1387103019215c871128597662b61d51
p903
sg13
g5
sg36
L0L
sg27
g5
sg29
g5
sg31
g5
sg32
g5
sg55
L0L
sg42
g5
sg44
Vson
p904
sa(dp905
g10
L0L
sg11
V@7ead32fa6f5f111ad0c13a99c23fe187
p906
sg13
g5
sg36
L0L
sg27
g5
sg29
g5
sg31
g5
sg32
g5
sg55
L0L
sg42
g5
sg44
Vwoa
p907
sa(dp908
g10
L0L
sg11
V@c58ca91262b10d22f49faeb5515eb2880ac34ccfa8c5c625e4ea5229aed6100e
p909
sg13
g5
sg36
L0L
sg27
g5
sg29
g5
sg31
g5
sg32
g5
sg55
L0L
sg42
g5
sg44
g5
sa(dp910
g10
L0L
sg11
V@fc008b91d222a95cfdedc50f95b1acab233316eb1b196a4df02194bc84609eae
p911
sg13
g5
sg36
L0L
sg27
g5
sg29
g5
sg31
g5
sg32
g5
sg55
L0L
sg42
g5
sg44
g5
sa(dp912
g10
L0L
sg11
V@7d3951489cec8ae84a40ccdaed1a30259da36999086d7bbe38e6f5907ec5c69e
p913
sg13
g5
sg36
L0L
sg27
g5
sg29
g5
sg31
g5
sg32
g5
sg55
L0L
sg42
g5
sg44
g5
sa(dp914
g10
L0L
sg11
V@81aa0b66050dab92d5ab8804ffdfc92f236687862198cba04890d2e93067941c
p915
sg13
g5
sg36
L0L
sg27
g5
sg29
g5
sg31
g5
sg32
g5
sg55
L0L
sg42
g5
sg44
g5
sa(dp916
g10
L0L
sg11
V@f1d1f0c78f714bf4ba452807e67b7847d2f0a0a71064fb8b6d73929534bfcb7f
p917
sg13
g5
sg36
L0L
sg27
g5
sg29
g5
sg31
g5
sg32
g5
sg55
L0L
sg42
g5
sg44
g5
sa(dp918
g10
L0L
sg11
V@21de175cbff4052b737e09d343ae57c60b72c36e357571531b838b09af9aeb61
p919
sg13
g5
sg36
L0L
sg27
g5
sg29
g5
sg31
g5
sg32
g5
sg55
L0L
sg42
g5
sg44
g5
sa(dp920
g10
L0L
sg11
V@f5330ecbbdb96a5b143bb87215c075ce859a1a58398b63e316bc7db5ef878833
p921
sg13
g5
sg36
L0L
sg27
g5
sg29
g5
sg31
g5
sg32
g5
sg55
L0L
sg42
g5
sg44
g5
sa(dp922
g10
L0L
sg11
V@7eecd80aba047206210ab5402f1aaf1426f7e8ac953f2cafdefc60779cff00bc
p923
sg13
g5
sg36
L0L
sg27
g5
sg29
g5
sg31
g5
sg32
g5
sg55
L0L
sg42
g5
sg44
g5
sa(dp924
g10
L0L
sg11
V@215b50cf7826763e2d235100ba04be4ac6fd476b7f2a7d7afd1854c9db8e4de6
p925
sg13
g5
sg36
L0L
sg27
g5
sg29
g5
sg31
g5
sg32
g5
sg55
L0L
sg42
g5
sg44
g5
sa(dp926
g10
L0L
sg11
V@ac76c038dc33766e1bd8c2b081be1c1015b4038c69e583c34b6e7f8cab14a1b2
p927
sg13
g5
sg36
L0L
sg27
g5
sg29
g5
sg31
g5
sg32
g5
sg55
L0L
sg42
g5
sg44
g5
sa(dp928
g10
L0L
sg11
V@1a1e34388d4861ef7764737becc83aaea2e894e40bdbf2d97161fe8e58393857
p929
sg13
g5
sg36
L0L
sg27
g5
sg29
g5
sg31
g5
sg32
g5
sg55
L0L
sg42
g5
sg44
g5
sa(dp930
g10
L0L
sg11
V@c302efd24a29991463cf3c687438e91019fa591b04c5c49c3031170dba7abe25
p931
sg13
g5
sg36
L0L
sg27
g5
sg29
g5
sg31
g5
sg32
g5
sg55
L0L
sg42
g5
sg44
g5
sa(dp932
g10
L0L
sg11
V@e4503fd9a9a42cb8c93dc27abec2327ba57e1ea414a336db8b82dd2449232058
p933
sg13
g5
sg36
L0L
sg27
g5
sg29
g5
sg31
g5
sg32
g5
sg55
L0L
sg42
g5
sg44
g5
sa(dp934
g10
L0L
sg11
V@bf91c5a9f5511c1082c71be846f6b4175e85df3cea60aa90326e00f086dcf0dc
p935
sg13
g5
sg36
L0L
sg27
g5
sg29
g5
sg31
g5
sg32
g5
sg55
L0L
sg42
g5
sg44
g5
sa(dp936
g10
L0L
sg11
V@fc1c99ed00f70a4564a13bf25082136b
p937
sg13
g5
sg36
L0L
sg27
g5
sg29
g5
sg31
g5
sg32
g5
sg55
L0L
sg42
g5
sg44
Vgoo
p938
sa(dp939
g10
L0L
sg11
V@88d9a0bb9bb4f3591c61d3d28bd2ffeb9db40103447bedc64d4361edd6c4874e
p940
sg13
g5
sg36
L0L
sg27
g5
sg29
g5
sg31
g5
sg32
g5
sg55
L0L
sg42
g5
sg44
g5
sa(dp941
g10
L0L
sg11
V@3b963e10654a761d323abcca8459b03c
p942
sg13
g5
sg36
L0L
sg27
g5
sg29
g5
sg31
g5
sg32
g5
sg55
L0L
sg42
g5
sg44
Vhal
p943
sa(dp944
g10
L0L
sg11
V@075d5048ef77102e30fd997bd2388ccde890e7a9a4ee9a23d76e9e3a8a6b4f4a
p945
sg13
g5
sg36
L0L
sg27
g5
sg29
g5
sg31
g5
sg32
g5
sg55
L0L
sg42
g5
sg44
g5
sa(dp946
g10
L0L
sg11
V@90ddba61e511b1b50f064378ed4d405e2f251e049a46063a4d15b59566cd4a96
p947
sg13
g5
sg36
L0L
sg27
g5
sg29
g5
sg31
g5
sg32
g5
sg55
L0L
sg42
g5
sg44
g5
sa(dp948
g10
L0L
sg11
V@84ff07bfc7e7e63f5806c60ff592564e830a999884f7c2bdc3a18f61aaef1eca
p949
sg13
g5
sg36
L0L
sg27
g5
sg29
g5
sg31
g5
sg32
g5
sg55
L0L
sg42
g5
sg44
g5
sa(dp950
g10
L0L
sg11
V@8a86be5c77a5bbd9dc3b360100acc8b705fe07524315ea8b268235413352e219
p951
sg13
g5
sg36
L0L
sg27
g5
sg29
g5
sg31
g5
sg32
g5
sg55
L0L
sg42
g5
sg44
g5
sa(dp952
g10
L0L
sg11
V@99a698faa10c9440e080550555219a45f485624a50f6cb9e30d9090ec4f1418d
p953
sg13
g5
sg36
L0L
sg27
g5
sg29
g5
sg31
g5
sg32
g5
sg55
L0L
sg42
g5
sg44
g5
sa(dp954
g10
L0L
sg11
V@757e9ef1626af7a78a8ba8ee09b06f06dc8598aeeec287f4f2c9db49dcc4edf7
p955
sg13
g5
sg36
L0L
sg27
g5
sg29
g5
sg31
g5
sg32
g5
sg55
L0L
sg42
g5
sg44
g5
sa(dp956
g10
L0L
sg11
V@241a2392d0507a41fc3207c4a131cc71
p957
sg13
g5
sg36
L0L
sg27
g5
sg29
g5
sg31
g5
sg32
g5
sg55
L0L
sg42
g5
sg44
Vpai
p958
sa(dp959
g10
L0L
sg11
V@043bc4bb5fb7fd089109a3f168914014
p960
sg13
g5
sg36
L0L
sg27
g5
sg29
g5
sg31
g5
sg32
g5
sg55
L0L
sg42
g5
sg44
Vw14
p961
sa(dp962
g10
L0L
sg11
V@f11db0d358c18ac077b9c5c9fa436de7
p963
sg13
g5
sg36
L0L
sg27
g5
sg29
g5
sg31
g5
sg32
g5
sg55
L0L
sg42
g5
sg44
Vxuh
p964
sa(dp965
g10
L0L
sg11
V@5321e17158fb60fc8691ea3cc4ecc3a7
p966
sg13
g5
sg36
L0L
sg27
g5
sg29
g5
sg31
g5
sg32
g5
sg55
L0L
sg42
g5
sg44
Vpen
p967
sa(dp968
g10
L0L
sg11
V@cb1279523c3512305895c65b49c1248dca4fa59d7d629bf76285eefb5f90094d
p969
sg13
g5
sg36
L0L
sg27
g5
sg29
g5
sg31
g5
sg32
g5
sg55
L0L
sg42
g5
sg44
g5
sa(dp970
g10
L0L
sg11
V@bedd56fb05b381aefbb82b71c15c2887160c9404625799f7b9f90479b2567691
p971
sg13
g5
sg36
L0L
sg27
g5
sg29
g5
sg31
g5
sg32
g5
sg55
L0L
sg42
g5
sg44
g5
sa(dp972
g10
L0L
sg11
V@f7fd88d68c6c602144cce445522e730a
p973
sg13
g5
sg36
L0L
sg27
g5
sg29
g5
sg31
g5
sg32
g5
sg55
L0L
sg42
g5
sg44
Vrui
p974
sa(dp975
g10
L0L
sg11
V@b55ce651a084c79b3d756dc97dfb1336d2591e76777136a10bcb1a620b21cd37
p976
sg13
g5
sg36
L0L
sg27
g5
sg29
g5
sg31
g5
sg32
g5
sg55
L0L
sg42
g5
sg44
g5
sa(dp977
g10
L0L
sg11
V@9bcf87207e29c0de3a5a3bdfff9d98b9
p978
sg13
g5
sg36
L0L
sg27
g5
sg29
g5
sg31
g5
sg32
g5
sg55
L0L
sg42
g5
sg44
Vwan
p979
sa(dp980
g10
L0L
sg11
V@2b71fa92701961a976f853740e9f7448b1d3e454f3aaad6fc61d5856fa7262ef
p981
sg13
g5
sg36
L0L
sg27
g5
sg29
g5
sg31
g5
sg32
g5
sg55
L0L
sg42
g5
sg44
g5
sa(dp982
g10
L0L
sg11
V@ae7b97472adfbb307710b7985e26779cf91af6c36cf6e1a5677886047e8753e9
p983
sg13
g5
sg36
L0L
sg27
g5
sg29
g5
sg31
g5
sg32
g5
sg55
L0L
sg42
g5
sg44
g5
sa(dp984
g10
L0L
sg11
V@ebf32ebfeed41608afd2ef438fdf04135a705c9819fe591b14dba1fde75a5bdb
p985
sg13
g5
sg36
L0L
sg27
g5
sg29
g5
sg31
g5
sg32
g5
sg55
L0L
sg42
g5
sg44
g5
sa(dp986
g10
L0L
sg11
V@9751aba8854bd6c8c63e517445e8bdd7448a1449a3ba23525c4055ad7d68e909
p987
sg13
g5
sg36
L0L
sg27
g5
sg29
g5
sg31
g5
sg32
g5
sg55
L0L
sg42
g5
sg44
g5
sa(dp988
g10
L0L
sg11
V@a60d0830aa3afafc76893e1593fcb119ebf916dd0a22d15c699997fd4b52620a
p989
sg13
g5
sg36
L0L
sg27
g5
sg29
g5
sg31
g5
sg32
g5
sg55
L0L
sg42
g5
sg44
g5
sa(dp990
g10
L0L
sg11
V@1bb505973c2597230dbdfbd90dda2d47b34a92c48dd46c0af977edbc7f7a8d90
p991
sg13
g5
sg36
L0L
sg27
g5
sg29
g5
sg31
g5
sg32
g5
sg55
L0L
sg42
g5
sg44
g5
sa(dp992
g10
L0L
sg11
V@2c3bf58295aa492841b87f118c431baad307c32bbb7027ed6cf567dcab76fd72
p993
sg13
g5
sg36
L0L
sg27
g5
sg29
g5
sg31
g5
sg32
g5
sg55
L0L
sg42
g5
sg44
g5
sa(dp994
g10
L0L
sg11
V@67ca27d528e29178d3c4099883b382c8a18fcc09bf83014865d22fc918ab4099
p995
sg13
g5
sg36
L0L
sg27
g5
sg29
g5
sg31
g5
sg32
g5
sg55
L0L
sg42
g5
sg44
g5
sa(dp996
g10
L0L
sg11
V@de32a81d23cb6aca40a8febb039d659a576bc0d3392522047029a091403a932d
p997
sg13
g5
sg36
L0L
sg27
g5
sg29
g5
sg31
g5
sg32
g5
sg55
L0L
sg42
g5
sg44
g5
sa(dp998
g10
L0L
sg11
V@ce8b4bbb918f926b874f13ab8affa63f
p999
sg13
g5
sg36
L0L
sg27
g5
sg29
g5
sg31
g5
sg32
g5
sg55
L0L
sg42
g5
sg44
VArc
p1000
sa(dp1001
g10
L0L
sg11
V@3db0a5e92168d5a63c819eb8968cffa381d041133bdca5f911d9fb2ade808d8e
p1002
sg13
g5
sg36
L0L
sg27
g5
sg29
g5
sg31
g5
sg32
g5
sg55
L0L
sg42
g5
sg44
g5
sa(dp1003
g10
L0L
sg11
V@90ef3802a0cafadeea842c35e50225e2
p1004
sg13
g5
sg36
L0L
sg27
g5
sg29
g5
sg31
g5
sg32
g5
sg55
L0L
sg42
g5
sg44
Vyan
p1005
sa(dp1006
g10
L0L
sg11
V@a37fbe0db984722463cb9deaeca09bf08b34aee1ee25d6b829514ca1c6346909
p1007
sg13
g5
sg36
L0L
sg27
g5
sg29
g5
sg31
g5
sg32
g5
sg55
L0L
sg42
g5
sg44
g5
sa(dp1008
g10
L0L
sg11
V@1e9a14457cd85db0d7823dc15d14c05e9f45c1906e6fc175522a7926f02249a7
p1009
sg13
g5
sg36
L0L
sg27
g5
sg29
g5
sg31
g5
sg32
g5
sg55
L0L
sg42
g5
sg44
g5
sa(dp1010
g10
L0L
sg11
V@fb63bf54f1765d6c995bb510b113b10fda4bb0892232c8b3da680d5ebe2bb3b0
p1011
sg13
g5
sg36
L0L
sg27
g5
sg29
g5
sg31
g5
sg32
g5
sg55
L0L
sg42
g5
sg44
g5
sa(dp1012
g10
L0L
sg11
V@11c29123e63f70d1fa9d87cfec3a2bd6
p1013
sg13
g5
sg36
L0L
sg27
g5
sg29
g5
sg31
g5
sg32
g5
sg55
L0L
sg42
g5
sg44
Vqq3
p1014
sa(dp1015
g10
L0L
sg11
V@325907ce2ef52e7d58cd0259863a33786ae58797570766abf2271271f668296f
p1016
sg13
g5
sg36
L0L
sg27
g5
sg29
g5
sg31
g5
sg32
g5
sg55
L0L
sg42
g5
sg44
g5
sa(dp1017
g10
L0L
sg11
V@1f8d58c70c49619fa2732ac6f4de953a
p1018
sg13
g5
sg36
L0L
sg27
g5
sg29
g5
sg31
g5
sg32
g5
sg55
L0L
sg42
g5
sg44
Vg49
p1019
sa(dp1020
g10
L0L
sg11
V@caf4ff4146ac94cb57871d996a9490f196b2bad9bef549f18ac5ac21dd0b6b7a
p1021
sg13
g5
sg36
L0L
sg27
g5
sg29
g5
sg31
g5
sg32
g5
sg55
L0L
sg42
g5
sg44
g5
sa(dp1022
g10
L0L
sg11
V@f9afe7d85cc53c04d82f69cdd731d167
p1023
sg13
g5
sg36
L0L
sg27
g5
sg29
g5
sg31
g5
sg32
g5
sg55
L0L
sg42
g5
sg44
Vxix
p1024
sa(dp1025
g10
L0L
sg11
V@2efd2a3c283105f4bd76646edc5d032e1eeca0e8b6dcddc0976c724973fa1a8a
p1026
sg13
g5
sg36
L0L
sg27
g5
sg29
g5
sg31
g5
sg32
g5
sg55
L0L
sg42
g5
sg44
g5
sa(dp1027
g10
L0L
sg11
V@e19bc839ff9314dbaf4ef72bf85d4e80
p1028
sg13
g5
sg36
L0L
sg27
g5
sg29
g5
sg31
g5
sg32
g5
sg55
L0L
sg42
g5
sg44
Vlmd
p1029
sa(dp1030
g10
L0L
sg11
V@b3715936f2042f03fc18b1f5de22c9d42825a7518d606864d7e4dd0bff5ecf7e
p1031
sg13
g5
sg36
L0L
sg27
g5
sg29
g5
sg31
g5
sg32
g5
sg55
L0L
sg42
g5
sg44
g5
sa(dp1032
g10
L0L
sg11
V@bbe1483c77614b85253a9e8020a9a9ba66317fd9edcc0ab7120a32fccc8891ee
p1033
sg13
g5
sg36
L0L
sg27
g5
sg29
g5
sg31
g5
sg32
g5
sg55
L0L
sg42
g5
sg44
g5
sa(dp1034
g10
L0L
sg11
V@20fb17a7529140d98e36a088c9730088dd7dc605065651dccd8cf530a2ba8f19
p1035
sg13
g5
sg36
L0L
sg27
g5
sg29
g5
sg31
g5
sg32
g5
sg55
L0L
sg42
g5
sg44
g5
sa(dp1036
g10
L0L
sg11
V@faeff5ee8b922f0180381859dca07bdb7add02c899f467314bfe609a37f4829b
p1037
sg13
g5
sg36
L0L
sg27
g5
sg29
g5
sg31
g5
sg32
g5
sg55
L0L
sg42
g5
sg44
g5
sa(dp1038
g10
L0L
sg11
V@ef56b56f0d9a2ac2933b3706b6775cf2008bd7e21804f25664db480f63b13dcf
p1039
sg13
g5
sg36
L0L
sg27
g5
sg29
g5
sg31
g5
sg32
g5
sg55
L0L
sg42
g5
sg44
g5
sa(dp1040
g10
L0L
sg11
V@7910ad7a68a732c97c46a3ab1df0776c
p1041
sg13
g5
sg36
L0L
sg27
g5
sg29
g5
sg31
g5
sg32
g5
sg55
L0L
sg42
g5
sg44
Vyut
p1042
sa(dp1043
g10
L0L
sg11
V@3d14726903ad63287e7cd88fb5ad61b8
p1044
sg13
g5
sg36
L0L
sg27
g5
sg29
g5
sg31
g5
sg32
g5
sg55
L0L
sg42
g5
sg44
Vllf
p1045
sa(dp1046
g10
L0L
sg11
V@e0cde4aaecb1185ce0d37af309028a41b6c858e383592e84072bca658d04ee4b
p1047
sg13
g5
sg36
L0L
sg27
g5
sg29
g5
sg31
g5
sg32
g5
sg55
L0L
sg42
g5
sg44
g5
sa(dp1048
g10
L0L
sg11
V@2031fb3ab40631297287d45c655b548c5c8c16ad308408be8a00b0aa16dd62d7
p1049
sg13
g5
sg36
L0L
sg27
g5
sg29
g5
sg31
g5
sg32
g5
sg55
L0L
sg42
g5
sg44
g5
sa(dp1050
g10
L0L
sg11
V@0f83f8cc9c3246498fb957883e118e374ccbe0fd3fdb38813f0702100b4a7ad9
p1051
sg13
g5
sg36
L0L
sg27
g5
sg29
g5
sg31
g5
sg32
g5
sg55
L0L
sg42
g5
sg44
g5
sa(dp1052
g10
L0L
sg11
V@bff9ee5aa7a332799f45fa75d653263f
p1053
sg13
g5
sg36
L0L
sg27
g5
sg29
g5
sg31
g5
sg32
g5
sg55
L0L
sg42
g5
sg44
Vzha
p1054
sa(dp1055
g10
L0L
sg11
V@b66bbaffef222d52a1a465ff573eec5f464183a2f513927a6572e590cd4e228b
p1056
sg13
g5
sg36
L0L
sg27
g5
sg29
g5
sg31
g5
sg32
g5
sg55
L0L
sg42
g5
sg44
Vzha
p1057
sa(dp1058
g10
L0L
sg11
V@65f363c8fa09dce5edd6bd15c8090d4f07f1c08a50471f82d0e7225caeb9caab
p1059
sg13
g5
sg36
L0L
sg27
g5
sg29
g5
sg31
g5
sg32
g5
sg55
L0L
sg42
g5
sg44
g5
sa(dp1060
g10
L0L
sg11
V@683bb0601288e301ee715a5d7bc4fcb34617f1d3581b6659cb9c4bc75d65500e
p1061
sg13
g5
sg36
L0L
sg27
g5
sg29
g5
sg31
g5
sg32
g5
sg55
L0L
sg42
g5
sg44
g5
sa(dp1062
g10
L0L
sg11
V@09f8469b5ade5d2261033dd55b387fd1c29dbdc5cf254ba04f56b983d42f6bfa
p1063
sg13
g5
sg36
L0L
sg27
g5
sg29
g5
sg31
g5
sg32
g5
sg55
L0L
sg42
g5
sg44
g5
sa(dp1064
g10
L0L
sg11
V@8e81338bce6c5cdedd818536ad1e6025d890fa248e9b12bbe3342d943557c9be
p1065
sg13
g5
sg36
L0L
sg27
g5
sg29
g5
sg31
g5
sg32
g5
sg55
L0L
sg42
g5
sg44
g5
sa(dp1066
g10
L0L
sg11
V@06e0cd576711a3c26d35d51c719e4e84506bc9a46ad04365c3d0f062a7b0313e
p1067
sg13
g5
sg36
L0L
sg27
g5
sg29
g5
sg31
g5
sg32
g5
sg55
L0L
sg42
g5
sg44
g5
sa(dp1068
g10
L0L
sg11
V@dd09c995952a47c4fce225371c0e6080e14edb23fc19eac21d0ca368cd2602c7
p1069
sg13
g5
sg36
L0L
sg27
g5
sg29
g5
sg31
g5
sg32
g5
sg55
L0L
sg42
g5
sg44
g5
sa(dp1070
g10
L0L
sg11
V@c4bf1a08efa8b9e393d2431702e4a4d4782f8dac2e470302b6b0f427b0e3194d
p1071
sg13
g5
sg36
L0L
sg27
g5
sg29
g5
sg31
g5
sg32
g5
sg55
L0L
sg42
g5
sg44
g5
sa(dp1072
g10
L0L
sg11
V@9f512b887d64773c85deeb4851f00500
p1073
sg13
g5
sg36
L0L
sg27
g5
sg29
g5
sg31
g5
sg32
g5
sg55
L0L
sg42
g5
sg44
Vqia
p1074
sa(dp1075
g10
L0L
sg11
V@fa8adb026daa83bad7d98f272aedf7045732fec76d166e700895aea6868bb488
p1076
sg13
g5
sg36
L0L
sg27
g5
sg29
g5
sg31
g5
sg32
g5
sg55
L0L
sg42
g5
sg44
g5
sa(dp1077
g10
L0L
sg11
V@a828510f3767c7cdcaf88ac776c97acbd199185e209ec2dbae8e26e1e0b866b1
p1078
sg13
g5
sg36
L0L
sg27
g5
sg29
g5
sg31
g5
sg32
g5
sg55
L0L
sg42
g5
sg44
g5
sa(dp1079
g10
L0L
sg11
V@d1d58570d0c3795a1d2184d8991a14aaaea69f1bf6db967a5c98b65cf9a15c16
p1080
sg13
g5
sg36
L0L
sg27
g5
sg29
g5
sg31
g5
sg32
g5
sg55
L0L
sg42
g5
sg44
g5
sa(dp1081
g10
L0L
sg11
V@d53ed782bcce3ac1bca4a4702abe70a66cfb88678347a64735aa21f8d2ab4e7f
p1082
sg13
g5
sg36
L0L
sg27
g5
sg29
g5
sg31
g5
sg32
g5
sg55
L0L
sg42
g5
sg44
g5
sa(dp1083
g10
L0L
sg11
V@f17273106f536799487e3249c26b4dae65e5d7ddb18af37d91bd0644c7aaf26d
p1084
sg13
g5
sg36
L0L
sg27
g5
sg29
g5
sg31
g5
sg32
g5
sg55
L0L
sg42
g5
sg44
g5
sa(dp1085
g10
L0L
sg11
V@cb99d1edfe455409c9bdd3af6b7c9f4918dd0757841f372e035f23a07c0a20d5
p1086
sg13
g5
sg36
L0L
sg27
g5
sg29
g5
sg31
g5
sg32
g5
sg55
L0L
sg42
g5
sg44
g5
sa(dp1087
g10
L0L
sg11
V@24566ce23ef101225dfe34dcfa367868
p1088
sg13
g5
sg36
L0L
sg27
g5
sg29
g5
sg31
g5
sg32
g5
sg55
L0L
sg42
g5
sg44
Vchi
p1089
sa(dp1090
g10
L0L
sg11
V@94e1a9a3464df6e2647ad1b72ab9e7a3ccdf2db639c0fd9566bd9687a675f2e2
p1091
sg13
g5
sg36
L0L
sg27
g5
sg29
g5
sg31
g5
sg32
g5
sg55
L0L
sg42
g5
sg44
g5
sa(dp1092
g10
L0L
sg11
V@80b8c0c12a3dc2122d3e280bd8e4941af3f6b3ddb0387022aa311f8bf11eec62
p1093
sg13
g5
sg36
L0L
sg27
g5
sg29
g5
sg31
g5
sg32
g5
sg55
L0L
sg42
g5
sg44
g5
sa(dp1094
g10
L0L
sg11
V@f5ac7da0e627a4846ae0c49011dc73a70acedebe374250bdc9fdf34b291681ea
p1095
sg13
g5
sg36
L0L
sg27
g5
sg29
g5
sg31
g5
sg32
g5
sg55
L0L
sg42
g5
sg44
g5
sa(dp1096
g10
L0L
sg11
V@c420511525bedcd3d39d0cc5bb76cf02cfe3eca9a43915b62a0d447e5715f3fa
p1097
sg13
g5
sg36
L0L
sg27
g5
sg29
g5
sg31
g5
sg32
g5
sg55
L0L
sg42
g5
sg44
g5
sa(dp1098
g10
L0L
sg11
V@22ab8ba6970b0eac314c4b035f0dd13e95233de93b9a38f69c9c012bd8721c63
p1099
sg13
g5
sg36
L0L
sg27
g5
sg29
g5
sg31
g5
sg32
g5
sg55
L0L
sg42
g5
sg44
g5
sa(dp1100
g10
L0L
sg11
V@163e78e0750e4c2790b741af3692e7fc1d9bb6c0948c018e8d53768274299b89
p1101
sg13
g5
sg36
L0L
sg27
g5
sg29
g5
sg31
g5
sg32
g5
sg55
L0L
sg42
g5
sg44
g5
sa(dp1102
g10
L0L
sg11
V@4f760ee4b7d064fc2a471a65ea1ffce6b98dd1e7a8f22ca41592b17b850ecdc4
p1103
sg13
g5
sg36
L0L
sg27
g5
sg29
g5
sg31
g5
sg32
g5
sg55
L0L
sg42
g5
sg44
g5
sa(dp1104
g10
L0L
sg11
V@1e80b95599ce61629357c8565609de55dce5ab36928e015a6975efe5d058c543
p1105
sg13
g5
sg36
L0L
sg27
g5
sg29
g5
sg31
g5
sg32
g5
sg55
L0L
sg42
g5
sg44
g5
sa(dp1106
g10
L0L
sg11
V@37201abcb07b6a4e132615d766c2457b7a6715201290537296e061d729aaa572
p1107
sg13
g5
sg36
L0L
sg27
g5
sg29
g5
sg31
g5
sg32
g5
sg55
L0L
sg42
g5
sg44
g5
sa(dp1108
g10
L0L
sg11
V@1d4fae37c5365657efc0aac74c38ec5a57e550785bafd289770aed137f187ee0
p1109
sg13
g5
sg36
L0L
sg27
g5
sg29
g5
sg31
g5
sg32
g5
sg55
L0L
sg42
g5
sg44
g5
sa(dp1110
g10
L0L
sg11
V@64ce07875e9813b447b205a5fdcd2ffd7ea23497e38e9c3279f609f4bf110d60
p1111
sg13
g5
sg36
L0L
sg27
g5
sg29
g5
sg31
g5
sg32
g5
sg55
L0L
sg42
g5
sg44
g5
sa(dp1112
g10
L0L
sg11
V@2a040f86fda371d3af03d6dd8bf2800e229c201e61abbe95f4069aba1daabc65
p1113
sg13
g5
sg36
L0L
sg27
g5
sg29
g5
sg31
g5
sg32
g5
sg55
L0L
sg42
g5
sg44
g5
sa(dp1114
g10
L0L
sg11
V@d07b423496efe87955418b8ddb14f8981c041e8e8ea66d961b49186b4345148b
p1115
sg13
g5
sg36
L0L
sg27
g5
sg29
g5
sg31
g5
sg32
g5
sg55
L0L
sg42
g5
sg44
g5
sa(dp1116
g10
L0L
sg11
V@776834b3b25bdf0b4ae4364ab5b01bc3
p1117
sg13
g5
sg36
L0L
sg27
g5
sg29
g5
sg31
g5
sg32
g5
sg55
L0L
sg42
g5
sg44
Vjjc
p1118
sa(dp1119
g10
L0L
sg11
V@cf69c25abe9a8987463a6aa5d7eb64e921446a1beb278e2eb200e338fbdd2df5
p1120
sg13
g5
sg36
L0L
sg27
g5
sg29
g5
sg31
g5
sg32
g5
sg55
L0L
sg42
g5
sg44
g5
sa(dp1121
g10
L0L
sg11
V@04e2d8bf86ff514961e062e1b22ccff1
p1122
sg13
g5
sg36
L0L
sg27
g5
sg29
g5
sg31
g5
sg32
g5
sg55
L0L
sg42
g5
sg44
Vhut
p1123
sa(dp1124
g10
L0L
sg11
V@8013652a78196cf8aa36e5e891b0b1ee
p1125
sg13
g5
sg36
L0L
sg27
g5
sg29
g5
sg31
g5
sg32
g5
sg55
L0L
sg42
g5
sg44
Vmar
p1126
sa(dp1127
g10
L0L
sg11
V@17dea77aad1eb409d7b6b5102c9aa445f5bab7c7d8b90fe5dec36edfaf4c25da
p1128
sg13
g5
sg36
L0L
sg27
g5
sg29
g5
sg31
g5
sg32
g5
sg55
L0L
sg42
g5
sg44
g5
sa(dp1129
g10
L0L
sg11
V@5dafa81ee0354a9602e23fde907a9851
p1130
sg13
g5
sg36
L0L
sg27
g5
sg29
g5
sg31
g5
sg32
g5
sg55
L0L
sg42
g5
sg44
Vzdd
p1131
sa(dp1132
g10
L0L
sg11
V@514d9561740b2ecb7a591fa650cba973341bb6f3c167010fc9a6ee04d55bf867
p1133
sg13
g5
sg36
L0L
sg27
g5
sg29
g5
sg31
g5
sg32
g5
sg55
L0L
sg42
g5
sg44
g5
sa(dp1134
g10
L0L
sg11
V@3dff762e8e530b3bf264a7ea6aa3642b6bb79b45e2cbb5e9972f08ca4fd5db85
p1135
sg13
g5
sg36
L0L
sg27
g5
sg29
g5
sg31
g5
sg32
g5
sg55
L0L
sg42
g5
sg44
g5
sa(dp1136
g10
L0L
sg11
V@f5ee73ab213152365476d829817a0589c506f98dee3a5e069f5a33532502e78e
p1137
sg13
g5
sg36
L0L
sg27
g5
sg29
g5
sg31
g5
sg32
g5
sg55
L0L
sg42
g5
sg44
g5
sa(dp1138
g10
L0L
sg11
V@db660cbccf5dd3917858f10271867a74
p1139
sg13
g5
sg36
L0L
sg27
g5
sg29
g5
sg31
g5
sg32
g5
sg55
L0L
sg42
g5
sg44
Vzqg
p1140
sa(dp1141
g10
L0L
sg11
V@765762005595abd9972a8314083969f0fabb466f99c38129a7113f90bdf3dc8b
p1142
sg13
g5
sg36
L0L
sg27
g5
sg29
g5
sg31
g5
sg32
g5
sg55
L0L
sg42
g5
sg44
g5
sasg21
g5
sg22
L0L
sg23
L0L
sg24
g5
sg25
L0L
sg26
L0L
sg27
g5
sg29
g5
sg31
g5
sg32
g5
sg33
L0L
sg34
L0L
sg35
L0L
sg36
L0L
sg37
g5
sg38
g5
sg39
g5
sg40
L0L
sg41
L0L
sg42
g5
sg43
L0L
sg44
g5
sg46
g5
sg47
L0L
sa(dp1143
g10
L0L
sg11
V@467edc019268943a127ab16cb44b6a60
p1144
sg13
V\u4eba\u6c11\u65e5\u62a5
p1145
sg15
V/cgi-bin/mmwebwx-bin/webwxgeticon?seq=644924654&username=@467edc019268943a127ab16cb44b6a60&skey=@crypt_bfcd2e1b_90c60cfbd93975a9fa855163853e9636
p1146
sg17
L3L
sg18
L0L
sg19
(lp1147
sg21
g5
sg22
L0L
sg23
L0L
sg24
V\u53c2\u4e0e\u3001\u6c9f\u901a\u3001\u8bb0\u5f55\u65f6\u4ee3\u3002
p1148
sg25
L24L
sg26
L0L
sg27
VRMRB
p1149
sg29
Vrenminribao
p1150
sg31
g5
sg32
g5
sg33
L0L
sg34
L0L
sg35
L0L
sg36
L0L
sg37
V\u5317\u4eac
p1151
sg38
V\u671d\u9633
p1152
sg39
g5
sg40
L0L
sg41
L0L
sg42
g5
sg43
L0L
sg44
Vgh_
p1153
sg46
g5
sg47
L0L
sa(dp1154
g10
L0L
sg11
V@6da3381701fc1ed5c1a67974f642b290
p1155
sg13
V\u65b0\u667a\u5143
p1156
sg15
V/cgi-bin/mmwebwx-bin/webwxgeticon?seq=669014471&username=@6da3381701fc1ed5c1a67974f642b290&skey=@crypt_bfcd2e1b_90c60cfbd93975a9fa855163853e9636
p1157
sg17
L3L
sg18
L0L
sg19
(lp1158
sg21
g5
sg22
L0L
sg23
L0L
sg24
V\u667a\u80fd+\u4e2d\u56fd\u4e3b\u5e73\u53f0\uff0c\u81f4\u529b\u4e8e\u63a8\u52a8\u4e2d\u56fd\u4ece\u4e92\u8054\u7f51+\u8fc8\u5411\u667a\u80fd+\u65b0\u7eaa\u5143\u3002\u91cd\u70b9\u5173\u6ce8\u4eba\u5de5\u667a\u80fd\u3001\u673a\u5668\u4eba\u7b49\u524d\u6cbf\u9886\u57df\u53d1\u5c55\uff0c\u5173\u6ce8\u4eba\u673a\u878d\u5408\u3001\u4eba\u5de5\u667a\u80fd\u548c\u673a\u5668\u4eba\u9769\u547d\u5bf9\u4eba\u7c7b\u793e\u4f1a\u4e0e\u6587\u660e\u8fdb\u5316\u7684\u5f71\u54cd\uff0c\u9886\u822a\u4e2d\u56fd\u65b0\u667a\u80fd\u65f6\u4ee3\u3002
p1159
sg25
L24L
sg26
L0L
sg27
VXZY
p1160
sg29
Vxinzhiyuan
p1161
sg31
g5
sg32
g5
sg33
L0L
sg34
L0L
sg35
L0L
sg36
L0L
sg37
V\u5317\u4eac
p1162
sg38
V\u6d77\u6dc0
p1163
sg39
g5
sg40
L0L
sg41
L0L
sg42
g5
sg43
L0L
sg44
Vgh_
p1164
sg46
g5
sg47
L0L
sa(dp1165
g10
L0L
sg11
V@e096e156cea3a8ebd11da53438057691
p1166
sg13
V\u8c46\u4e01\u6587\u6863
p1167
sg15
V/cgi-bin/mmwebwx-bin/webwxgeticon?seq=654721496&username=@e096e156cea3a8ebd11da53438057691&skey=@crypt_bfcd2e1b_90c60cfbd93975a9fa855163853e9636
p1168
sg17
L3L
sg18
L0L
sg19
(lp1169
sg21
g5
sg22
L0L
sg23
L0L
sg24
V\u4eb2\uff0c\u8fd9\u662f\u8c46\u4e01\u7f51\u5b98\u65b9\u670d\u52a1\u53f7\uff0c\u5173\u6ce8\u5373\u53ef\u5b9e\u65f6\u6536\u53d6\u8c46\u4e01\u7f51\u6700\u65b0\u901a\u77e5\u4e0e\u5ba2\u670d\u56de\u590d\uff0c\u66f4\u53ef\u514d\u8d39\u6d4f\u89c8\u8c46\u4e01\u7f51\u8fd12\u4ebf\u6587\u6863\u8d44\u6599\u3002\u626b\u7801\u652f\u4ed8\u5373\u5c06\u5f00\u542f\uff0c\u656c\u8bf7\u5173\u6ce8\uff01
p1170
sg25
L24L
sg26
L0L
sg27
VDDWD
p1171
sg29
Vdoudingwendang
p1172
sg31
g5
sg32
g5
sg33
L0L
sg34
L0L
sg35
L0L
sg36
L0L
sg37
V\u5317\u4eac
p1173
sg38
V\u6d77\u6dc0
p1174
sg39
g5
sg40
L0L
sg41
L0L
sg42
g5
sg43
L0L
sg44
Vgh_
p1175
sg46
g5
sg47
L0L
sa(dp1176
g10
L0L
sg11
V@0e1804549d379c7d359b0865122dbc09
p1177
sg13
V\u673a\u5668\u4e4b\u5fc3
p1178
sg15
V/cgi-bin/mmwebwx-bin/webwxgeticon?seq=668848548&username=@0e1804549d379c7d359b0865122dbc09&skey=@crypt_bfcd2e1b_90c60cfbd93975a9fa855163853e9636
p1179
sg17
L3L
sg18
L0L
sg19
(lp1180
sg21
g5
sg22
L0L
sg23
L0L
sg24
V\u4e13\u4e1a\u7684\u4eba\u5de5\u667a\u80fd\u5a92\u4f53\u548c\u4ea7\u4e1a\u670d\u52a1\u5e73\u53f0
p1181
sg25
L24L
sg26
L0L
sg27
VJQZX
p1182
sg29
Vjiqizhixin
p1183
sg31
g5
sg32
g5
sg33
L0L
sg34
L0L
sg35
L0L
sg36
L0L
sg37
V\u5317\u4eac
p1184
sg38
V\u671d\u9633
p1185
sg39
g5
sg40
L0L
sg41
L0L
sg42
g5
sg43
L0L
sg44
Vgh_
p1186
sg46
g5
sg47
L0L
sasVSyncKey
p1187
(dp1188
g6
L4L
sVList
p1189
(lp1190
(dp1191
VKey
p1192
L1L
sVVal
p1193
L685294545L
sa(dp1194
g1192
L2L
sg1193
L685294673L
sa(dp1195
g1192
L3L
sg1193
L685294676L
sa(dp1196
g1192
L1000L
sg1193
L1516681322L
sassVUser
p1197
(dp1198
g10
L2221117845L
sg11
V@09f8469b5ade5d2261033dd55b387fd1c29dbdc5cf254ba04f56b983d42f6bfa
p1199
sg13
V\u9ad8\u6da6
p1200
sg15
V/cgi-bin/mmwebwx-bin/webwxgeticon?seq=1888313556&username=@09f8469b5ade5d2261033dd55b387fd1c29dbdc5cf254ba04f56b983d42f6bfa&skey=@crypt_bfcd2e1b_90c60cfbd93975a9fa855163853e9636
p1201
sg21
g5
sg27
g5
sg29
g5
sg31
g5
sg32
g5
sg22
L0L
sg33
L0L
sg23
L2L
sg24
VDiversity is essential to happiness
p1202
sg34
L0L
sg25
L0L
sg17
L0L
sVWebWxPluginSwitch
p1203
L0L
sVHeadImgFlag
p1204
L1L
sg40
L17L
ssVChatSet
p1205
Vfilehelper,@@623509b9d912b8e56792e6c35e0506e9dd5bbc4d50d8abffa29796f6cc846fef,@665026cdec2e221353416dbcb61bdb98,@ae23dfcea93d2dc5b8d876080e95df29,@514d3232197d54190ca398597f2d54f7,@73444b60667802f6f410b1e2eb04503f,@@7ac4b78f0edfbe306d6b1ed072a35eca39e415f9d46a0d56ecfe4bf88e678ab2,@467edc019268943a127ab16cb44b6a60,@6da3381701fc1ed5c1a67974f642b290,@e096e156cea3a8ebd11da53438057691,@0e1804549d379c7d359b0865122dbc09,@62dfc1158e32978f652cb04d40e4a4ee,@@46c17af7a9e67be05d32a45276e41087287cf541d5524bcfc8f57609bc059617,@@0f8b6f86831b753e7028c1ee92da4572397d4d298329736cb875ca37e5f1cd53,@@b5cd788d8d698514e160b8e5b16ae7cf515d067489cfea2f125fc3a0f604d2de,@@4eff416d6c1c326a0f067d713ba2aa4f4086f6fefdf3168fbcb8a8c87198443e,@@5f3c6755a7e0ee16992d717e9986862a3d8fb7a239750b05f7503e906371cfb8,@3b1edcfa6671f6ec02a38fe3b4512816f680521183e5b920eded75d41c8f644b,@85aeb74697aeb1ba3e043216a61aad5cda901e1eb97d66ab3d9deb773fea8202,@@326e6f5f0bcb90b3e234b151fd90b75920e2c7d48e0403c137c13b8dedf7e655,@@42021ba208132226e1de90effcd071dfa685323d171b5cdb0d8ac30c6fa89c90,weixin,@@e3b1939e72cf964e0fa29a019776e9cf2c842b09de48b09e39e1f38afce63c80,@@5cdb4d8163d84799f465b8694cdfc4e2cefa9e25f7403f1a3920745ce69550b6,@@3bbe5cc8f828beb8d0b046a17981411f1afe12501ecfd35b3852907b885160ea,
p1206
sVSKey
p1207
V@crypt_bfcd2e1b_90c60cfbd93975a9fa855163853e9636
p1208
sVClientVersion
p1209
L637927797L
sVSystemTime
p1210
L1516691922L
sVGrayScale
p1211
L1L
sVInviteStartCount
p1212
L40L
sVMPSubscribeMsgCount
p1213
L8L
sVMPSubscribeMsgList
p1214
(lp1215
(dp1216
g11
V@665026cdec2e221353416dbcb61bdb98
p1217
sVMPArticleCount
p1218
L1L
sVMPArticleList
p1219
(lp1220
(dp1221
VTitle
p1222
V\u6211\u4eec\u662f\u5728\u8ffd\u6c42\u68a6\u60f3\uff0c\u8fd8\u662f\u5728\u6c89\u6eba\u5e7b\u60f3
p1223
sVDigest
p1224
V\u4eba\u5c31\u4e00\u8f88\u5b50\uff0c\u4f60\u8981\u6562\u8d4c\uff0c\u8001\u5929\u624d\u6562\u8ba9\u4f60\u8d62 \uff0c\u6ee1\u662f\u501f\u53e3\u7684\u9752\u6625\u8f93\u4e0d\u8d77\uff0c\u56e0\u4e3a\u5b83\u5c31\u6ca1\u8d62\u8fc7\u3002
p1225
sVCover
p1226
Vhttp://mmbiz.qpic.cn/mmbiz_jpg/l84h1YLfEUbQYJ6wb8jQB9jWswH9wl3SLibBwWc0PGebdFcSGmflGcaSJbGjL5TUrVmMx0icIaAkiaVNgVGoARBIg/640?wxtype=jpeg&wxfrom=0
p1227
sVUrl
p1228
Vhttp://mp.weixin.qq.com/s?__biz=MzAwMDU5NzAyMg==&mid=2658931658&idx=1&sn=097f61ed5d0e428f474043cd7ee2bc31&chksm=816e3ebbb619b7ad353420e76f6df6b2e4f5e53453887377e8a00348b4ea8916be189b941ebc&scene=0#rd
p1229
sasVTime
p1230
L1516684735L
sg13
V\u897f\u7535\u7814\u7a76\u751f
p1231
sa(dp1232
g11
V@ae23dfcea93d2dc5b8d876080e95df29
p1233
sg1218
L3L
sg1219
(lp1234
(dp1235
g1222
V\u53f2\u4e0a\u6700\u5168\uff0127\u79cd\u795e\u7ecf\u7f51\u7edc\u7b80\u660e\u56fe\u89e3\uff1a\u6a21\u578b\u90a3\u4e48\u591a\uff0c\u6211\u8be5\u600e\u4e48\u9009\uff1f
p1236
sg1224
V\u795e\u7ecf\u7f51\u7edc\u79cd\u7c7b\u7e41\u591a\uff0c\u4f46\u8fd9\u670927\u4e2a\u795e\u7ecf\u7f51\u7edc\u7684\u8be6\u7ec6\u56fe\u89e3\uff0c\u55b5\uff01
p1237
sg1226
Vhttp://mmbiz.qpic.cn/mmbiz_jpg/wc7YNPm3YxXeglpxd07ojHiaLfbGrThqY92Xn5KEf2h37YRmaXibj3GVlcJ3hRk8W0Bs71icfvDRZtKUvkRq1AFkw/640?wxtype=jpeg&wxfrom=0
p1238
sg1228
Vhttp://mp.weixin.qq.com/s?__biz=MjM5MTQzNzU2NA==&mid=2651656508&idx=1&sn=5d62544fa8083c76a254903a41840e85&chksm=bd4c36af8a3bbfb91c79c6fe124881edd6362f21f726cc3de497022f825e6d30d9d2e39b085a&scene=0#rd
p1239
sa(dp1240
g1222
V\u4e1a\u754c | Facebook\u521a\u521a\u5b9a\u4e49\u4e86\u4e00\u4e2a\u65b0\u7684\u65f6\u95f4\u5355\u4f4dFlicks\uff0c\u9020\u798f\u7a0b\u5e8f\u733f
p1241
sg1224
VFacebook\u4eca\u65e5\u51cc\u6668\u63a8\u51fa\u4e86\u4e00\u6b3e\u65b0"\u4ea7\u54c1"\u2014\u2014Flicks\uff0c\u4e00\u79cd\u65b0\u7684\u65f6\u95f4\u5355\u4f4d\u3002
p1242
sg1226
Vhttp://mmbiz.qpic.cn/mmbiz_jpg/wc7YNPm3YxXeglpxd07ojHiaLfbGrThqY6PBmibxYZluX5x4SrBozicTZNdng9ia8jCfRrukxg3qmTsVQn3uPmhftA/300?wxtype=jpeg&wxfrom=0
p1243
sg1228
Vhttp://mp.weixin.qq.com/s?__biz=MjM5MTQzNzU2NA==&mid=2651656508&idx=2&sn=332dd1090b5cb02d45c9f3306a6b463f&chksm=bd4c36af8a3bbfb9c1146ecaa6a1e6891e036817316263767ca1132505f7294458bf51e91729&scene=0#rd
p1244
sa(dp1245
g1222
VAI\u5927\u4e8b\u4ef6 | \u8c37\u6b4c\u53d1\u5e03Cloud AutoML\uff0cPyTorch2017\u5e74\u603b\u7ed3\uff0c\u5de8\u5927\u795e\u7ecf\u7f51\u7edc\u9002\u5e94\u5185\u5b58\u65b9\u6cd5
p1246
sg1224
VAI\u5708\u53c8\u53d1\u751f\u4e86\u4ec0\u4e48\uff1f\u6587\u6458\u83cc\u5e26\u4f60\u56de\u987e\u8fc7\u53bb\u4e00\u5468\u7684AI\u5927\u4e8b\u4ef6\uff01
p1247
sg1226
Vhttp://mmbiz.qpic.cn/mmbiz_jpg/wc7YNPm3YxXeglpxd07ojHiaLfbGrThqYlAI3uMsH34w8tpibPu173vtsOLhziavVdptg6oZlJ4mvw6XXJgggCOLw/300?wxtype=jpeg&wxfrom=0
p1248
sg1228
Vhttp://mp.weixin.qq.com/s?__biz=MjM5MTQzNzU2NA==&mid=2651656508&idx=3&sn=3f8e522be24f42050c2c36262afe7153&chksm=bd4c36af8a3bbfb9556160f9164ba888d6d0e14a79835186a5ceeed97e81dd6c9d2cb6dff3aa&scene=0#rd
p1249
sasg1230
L1516684475L
sg13
V\u5927\u6570\u636e\u6587\u6458
p1250
sa(dp1251
g11
V@514d3232197d54190ca398597f2d54f7
p1252
sg1218
L1L
sg1219
(lp1253
(dp1254
g1222
V\u7126\u674e\u6210\uff1a\u4ee5\u4eba\u5de5\u667a\u80fd\u70b9\u4eae\u65b0\u7ecf\u6d4e \u9655\u897f\u8981\u505a\u4e09\u4ef6\u4e8b
p1255
sg1224
V\u666e\u901a\u4eba\u770b\u6765\uff0c\u4eba\u5de5\u667a\u80fd\u6216\u8bb8\u8fd8\u5f88\u795e\u79d8\uff0c\u4f46\u5728\u897f\u5b89\u7535\u5b50\u79d1\u6280\u5927\u5b66\u6559\u6388\u7126\u674e\u6210\u770b\u6765\uff0c\u4eba\u5de5\u667a\u80fd\u662f\u670d\u52a1\u4e8e\u751f\u6d3b\u7684\u6280\u672f\u3002
p1256
sg1226
Vhttp://mmbiz.qpic.cn/mmbiz_jpg/bkJ7o7aB5SRo43H8OhicYj4kHbyafsJE8H7lXnmLruntsgGgMjM0QrCFSIdWNibhDrcPztiacia7DVV2RNCpomlCFg/640?wxtype=jpeg&wxfrom=0
p1257
sg1228
Vhttp://mp.weixin.qq.com/s?__biz=MzU1MjY0OTg4MQ==&mid=2247483656&idx=1&sn=adc2d0f3bb5d6f4de64b983e96df974c&chksm=fbff94fecc881de80078ec58ddb80accac15b877094f56710fb6f54deab8cf5cdf2bfa26258b&scene=0#rd
p1258
sasg1230
L1516683474L
sg13
V\u897f\u7535\u4eba\u5de5\u667a\u80fd\u5b66\u9662
p1259
sa(dp1260
g11
V@73444b60667802f6f410b1e2eb04503f
p1261
sg1218
L2L
sg1219
(lp1262
(dp1263
g1222
V\u963f\u91cc\u518d\u5ea6\u5f00\u6e90\u91cd\u78c5\u6280\u672f\uff0195% \u7a0b\u5e8f\u5458\u90fd\u9700\u8981\u4e86\u89e3
p1264
sg1224
V\u8fd1 300 \u9875\u963f\u91cc\u6280\u672f\u5e72\u8d27\uff0c\u9996\u6b21\u514d\u8d39\u5bf9\u5916\u516c\u5f00\uff0c\u4e3a\u4f60\u5c55\u793a\u963f\u91cc\u6280\u672f\u7684\u5d2d\u65b0\u9762\u8c8c\u4e0e\u5b9e\u529b\u3002
p1265
sg1226
Vhttp://mmbiz.qpic.cn/mmbiz_jpg/Pn4Sm0RsAugmODpB7dW4GMKiaUlvEJo2b6b2GDSBQlKB22rb6UeyWnB7ypicNPfcuJR15HdlR9OWg4Nomv8YJoIQ/640?wxtype=jpeg&wxfrom=0
p1266
sg1228
Vhttp://mp.weixin.qq.com/s?__biz=MjM5MjAwODM4MA==&mid=2650693530&idx=1&sn=005ad17ad9c1e3fc49adf77017985dd1&chksm=bea62e4989d1a75f8f98c51239b51408352b1c18abfff9efe073876c2b249ba875ca4d862997&scene=0#rd
p1267
sa(dp1268
g1222
V\u5973\u751f\u9002\u5408\u505a\u7a0b\u5e8f\u5458\u5417\uff1f
p1269
sg1224
V\u5728\u8fd9\u4e2a\u5e73\u7b49\u81ea\u7531\u7684\u65f6\u4ee3\uff0c\u5973\u751f\u7edd\u5bf9\u662f\u975e\u5e38\u9002\u5408\u505a\u7a0b\u5e8f\u5458\uff01\u5728IT\u9886\u57df\uff0c\u8eab\u4e3a\u5973\u751f\u5b58\u5728\u7740\u8bf8\u591a\u7684\u4f18\u52bf\u3002
p1270
sg1226
Vhttp://mmbiz.qpic.cn/mmbiz_jpg/Pn4Sm0RsAugmODpB7dW4GMKiaUlvEJo2bII2sMD3QtEVmL0Y1Eja1ovOickIcMpibmnj9DUTZmkMVtIE1uJJmaGjg/300?wxtype=jpeg&wxfrom=0
p1271
sg1228
Vhttp://mp.weixin.qq.com/s?__biz=MjM5MjAwODM4MA==&mid=2650693530&idx=2&sn=6476a5e4a896fd445cc86dec2c3396de&chksm=bea62e4989d1a75fb8af9b409da6bdea84f05aba9829b335033eed0e6d0c15118b1cf57acf59&scene=0#rd
p1272
sasg1230
L1516683189L
sg13
VCSDN
p1273
sa(dp1274
g11
V@467edc019268943a127ab16cb44b6a60
p1275
sg1218
L4L
sg1219
(lp1276
(dp1277
g1222
V\u201c\u6211\u8981\u662f\u4e0d\u8df3\u4e0b\u53bb\u6551\u4eba\u5c31\u662f\u4e2a\u6df7\u86cb\uff01\u201d\u8fd9\u6bb5\u51b0\u7a9f\u4e2d\u6551\u4eba\u7684\u89c6\u9891\u5237\u7206\u670b\u53cb\u5708
p1278
sg1224
V\u5411\u82f1\u96c4\u81f4\u656c\uff01
p1279
sg1226
Vhttp://mmbiz.qpic.cn/mmbiz_jpg/xrFYciaHL08B4B9ZibRlwG3mxSVmoho0EYRsIaUtdSarkNaZclUae3nzNiaPHVJJ0aTcuBXxZc2fOKCW5pEDcsLUw/640?wxtype=jpeg&wxfrom=0
p1280
sg1228
Vhttp://mp.weixin.qq.com/s?__biz=MjM5MjAxNDM4MA==&mid=2666183313&idx=1&sn=59ebc5f02f72d00e9478f76ed4c80d6a&chksm=bdb2d3d28ac55ac42838e28277b5ed27c77fbd0ca03c81ee655471d4507a2ab1e6376e3c58a6&scene=0#rd
p1281
sa(dp1282
g1222
V\u3010\u63d0\u9192\u3011\u5bb6\u91cc\u8fd9\u4e24\u6837\u4e1c\u897f\uff0c\u5343\u4e07\u4e0d\u8981\u6df7\u5728\u4e00\u8d77\u7528\uff01\u5f88\u5371\u9669\uff01
p1283
sg1224
V\u5404\u79cd\u5404\u6837\u7684\u6e05\u6d17\u5242\uff0c\u5343\u4e07\u4e0d\u8981\u968f\u4fbf\u63ba\u7740\u7528\uff01
p1284
sg1226
Vhttp://mmbiz.qpic.cn/mmbiz_jpg/xrFYciaHL08B4B9ZibRlwG3mxSVmoho0EY2dM0PBic5VgPpwvO9Y5snIDydDaCOXFj1LSl9hlN1LDgcYyjzjPrMAQ/300?wxtype=jpeg&wxfrom=0
p1285
sg1228
Vhttp://mp.weixin.qq.com/s?__biz=MjM5MjAxNDM4MA==&mid=2666183313&idx=2&sn=5573e0fb10cbc46fdb03be8036fa2eb1&chksm=bdb2d3d28ac55ac49c40b8a9fe9f93b0ec2948347717c5dde797315065cf8b7a315d3d290e20&scene=0#rd
p1286
sa(dp1287
g1222
V\u3010\u5065\u5eb7\u3011\u5403\u7cd6\u597d\u6bd4\u5438\u70df\uff01\u4f60\u5403\u4e0b\u53bb\u7684\u7cd6\u6bd4\u4f60\u60f3\u8c61\u7684\u66f4\u591a
p1288
sg1224
V\u4e3a\u4e86\u81ea\u5df1\u548c\u5bb6\u4eba\uff0c\u5c11\u5403\u70b9\u7cd6\u5427\u3002
p1289
sg1226
Vhttp://mmbiz.qpic.cn/mmbiz_jpg/xrFYciaHL08B4B9ZibRlwG3mxSVmoho0EYqw9491yIicEeWrJR6vvDvCRhxhNEZGWw19yBoyk9rcvpJm2s38gml8w/300?wxtype=jpeg&wxfrom=0
p1290
sg1228
Vhttp://mp.weixin.qq.com/s?__biz=MjM5MjAxNDM4MA==&mid=2666183313&idx=3&sn=eadde8892cc38dfd7ae45487d8dd1e79&chksm=bdb2d3d28ac55ac4e69906c621c5588a9b516d72d611964870b3c926b4fc1014c11039e17919&scene=0#rd
p1291
sa(dp1292
g1222
V\u3010\u8350\u8bfb\u3011\u8fc7\u5e74\u53c8\u8981\u540c\u5b66\u805a\u4f1a\u4e86\uff0c\u8fd9\u4e9b\u6ce8\u610f\u4e8b\u9879\u6bcf\u4e2a\u4eba\u6700\u597d\u770b\u770b\uff01\u7262\u8bb0\uff01
p1293
sg1224
V\u8001\u540c\u5b66\u805a\u4f1a\uff0c\u8bb2\u7684\u662f\u8fc7\u53bb\uff0c\u804a\u7684\u662f\u60c5\u8c0a\u3002
p1294
sg1226
Vhttp://mmbiz.qpic.cn/mmbiz_jpg/xrFYciaHL08B4B9ZibRlwG3mxSVmoho0EYW7ruyH07mLicJu08zC4BNzVxCN7CRh4MI8N30Is4BAwQLQ3cJliaXvxA/300?wxtype=jpeg&wxfrom=0
p1295
sg1228
Vhttp://mp.weixin.qq.com/s?__biz=MjM5MjAxNDM4MA==&mid=2666183313&idx=4&sn=f8dad55c7386bfbf14f201ff3bee7190&chksm=bdb2d3d28ac55ac45235cacde8fdd49b76e6b7a3c0f22c3afc337d41657b939059b51c839fdf&scene=0#rd
p1296
sasg1230
L1516681062L
sg13
V\u4eba\u6c11\u65e5\u62a5
p1297
sa(dp1298
g11
V@6da3381701fc1ed5c1a67974f642b290
p1299
sg1218
L5L
sg1219
(lp1300
(dp1301
g1222
V\u3010AI\u5b66\u9738\u699c\u3011\u4e16\u754c\u540d\u6821\u5341\u5927\u5b66\u9738\u83b7200\u4e07\u5956\u91d1\uff0cNLP\u3001CV\u7b49\u56db\u5927\u9886\u57df\u5b66\u672f\u79d8\u7c4d\u66dd\u5149
p1302
sg1224
V\u672c\u6587\u5c06\u8be6\u7ec6\u5448\u73b0\u5b66\u9738\u4eec\u7684\u6c42\u5b66\u7ecf\u5386\u548c\u611f\u609f
p1303
sg1226
Vhttp://mmbiz.qpic.cn/mmbiz_jpg/UicQ7HgWiaUb0YWH76zPg7YBaDOsnYOzia0a1icTEFepHBZVpQBuNTwgiboddqpq8iapXTX6KdF4WUY9RTSBQZmbao2Q/640?wxtype=jpeg&wxfrom=0
p1304
sg1228
Vhttp://mp.weixin.qq.com/s?__biz=MzI3MTA0MTk1MA==&mid=2652012099&idx=1&sn=d7aaf4f34cfa038dca589b918e354d66&chksm=f1210ab2c65683a43aef3732dcb4341b6dfd34d18c42fccce3eea121d392df12522f4205fd46&scene=0#rd
p1305
sa(dp1306
g1222
V\u3010\u6743\u5a01\u699c\u5355\u30112017 \u5e74\u4e2d\u56fd\u9ad8\u88ab\u5f15\u5b66\u8005\u699c\u5355\u53d1\u5e03\uff0c\u8ba1\u7b97\u673a\u79d1\u5b66\u9886\u57df 153 \u4f4d\u5b66\u8005\u5165\u9009
p1307
sg1224
V153 \u4f4d\u5b66\u8005\u5165\u9009\u8ba1\u7b97\u673a\u79d1\u5b66\u9886\u57df\u9ad8\u88ab\u5f15\u5b66\u8005\uff0c\u6765\u81ea 68 \u4e2a\u5355\u4f4d\u3002
p1308
sg1226
Vhttp://mmbiz.qpic.cn/mmbiz_jpg/UicQ7HgWiaUb0YWH76zPg7YBaDOsnYOzia009xEQ7AptW1NvWEwojljGwgscxQhBEkZcNfPPbfh5zFeUmdmRWD53Q/300?wxtype=jpeg&wxfrom=0
p1309
sg1228
Vhttp://mp.weixin.qq.com/s?__biz=MzI3MTA0MTk1MA==&mid=2652012099&idx=2&sn=7162d975c2a364dc3c16713e9447ffb5&chksm=f1210ab2c65683a4dd4d7bc20df8ec5e8a36a3309755e59af04ffdde7511ae00cf9a97cb58bc&scene=0#rd
p1310
sa(dp1311
g1222
V\u5f20\u9996\u665f\uff1a\u533a\u5757\u94fe\u6280\u672f\u662f\u4e92\u8054\u7f51\u4e16\u754c\u65b0\u7684\u5206\u5408\u8f6c\u6298\u70b9
p1312
sg1224
V\u4e00\u65e6\u6709\u4e86\u533a\u5757\u94fe\u4e4b\u540e\uff0c\u5982\u679c\u521b\u9020\u6570\u636e\u80fd\u88ab\u4ef7\u503c\u5316\u3001\u5171\u8bc6\u5316\uff0c\u5c31\u4f1a\u5f62\u6210\u4e00\u4e2a\u5927\u7684\u6570\u636e\u5e02\u573a
p1313
sg1226
Vhttp://mmbiz.qpic.cn/mmbiz_jpg/UicQ7HgWiaUb0YWH76zPg7YBaDOsnYOzia0NA9iaEaLJ7XDkXMia2wxUUX0aLVLqDqiaOwRpynOk8zjNKIcjYlPQqEjw/300?wxtype=jpeg&wxfrom=0
p1314
sg1228
Vhttp://mp.weixin.qq.com/s?__biz=MzI3MTA0MTk1MA==&mid=2652012099&idx=3&sn=b6ca68525bfea93d012e19227be2eb6a&chksm=f1210ab2c65683a444a5dde49c2b8daebf28b1ffa2fa5cc6e81fdcddbf9d111623e2dbcfc3d7&scene=0#rd
p1315
sa(dp1316
g1222
V\u8c37\u6b4c\u548cFacebook\u5728LeCun\u8001\u5bb6\u62a2\u751f\u610f\uff0c\u8c01\u80fd\u8d62\u5f97\u6cd5\u5170\u897fAI\u4e4b\u6218\uff1f
p1317
sg1224
V\u6cd5\u56fd\uff0c\u5df2\u6210\u4e3a\u79d1\u6280\u5de8\u5934\u7684\u5175\u5bb6\u5fc5\u4e89\u4e4b\u5730\u3002
p1318
sg1226
Vhttp://mmbiz.qpic.cn/mmbiz_jpg/UicQ7HgWiaUb0YWH76zPg7YBaDOsnYOzia07AzZ1BtauCqyJicLEyaHb8uqvcTib9lMLIAppUs671UXe5ISd1Q1dhNg/300?wxtype=jpeg&wxfrom=0
p1319
sg1228
Vhttp://mp.weixin.qq.com/s?__biz=MzI3MTA0MTk1MA==&mid=2652012099&idx=4&sn=04948b165c2a5cb6a983c1a3f5f37cfa&chksm=f1210ab2c65683a43e606b0b0a8d1b89bec2a4f036e8855d138bcbf70e5c38fb6a3a95003dae&scene=0#rd
p1320
sa(dp1321
g1222
V\u3010\u5e72\u8d27\u3011\u4e00\u6587\u8bfb\u61c2\u667a\u80fd\u5bf9\u8bdd\u7cfb\u7edf\uff0c\u5f53\u524d\u7814\u7a76\u7efc\u8ff0\u548c\u672a\u6765\u8d8b\u52bf
p1322
sg1224
V\u4e00\u6587\u5f7b\u5e95\u8bfb\u61c2\u667a\u80fd\u5bf9\u8bdd\u7cfb\u7edf\uff0c\u5fc5\u987b\u6536\u85cf\uff01
p1323
sg1226
Vhttp://mmbiz.qpic.cn/mmbiz_jpg/UicQ7HgWiaUb0YWH76zPg7YBaDOsnYOzia0QEt1u4pzf8Z0DxkC1YnxRBo2KOBWd9JfVg6QG16ZicDfQ3YYfPmndlg/300?wxtype=jpeg&wxfrom=0
p1324
sg1228
Vhttp://mp.weixin.qq.com/s?__biz=MzI3MTA0MTk1MA==&mid=2652012099&idx=5&sn=6be83f0f468dbd7c75df89c26025b0d7&chksm=f1210ab2c65683a4793e4697c8b5ca0aec501164e01283e3ff31597efee82ecd47110bf13f36&scene=0#rd
p1325
sasg1230
L1516680904L
sg13
V\u65b0\u667a\u5143
p1326
sa(dp1327
g11
V@e096e156cea3a8ebd11da53438057691
p1328
sg1218
L8L
sg1219
(lp1329
(dp1330
g1222
V\u8003\u4e0a985\u90fd\u662f\u201c\u903c\u201d\u51fa\u6765\u7684\uff1f683\u5206\u5b66\u9738\u542b\u6cea\u8bf4\u51fa\u771f\u76f8\uff01\u5f88\u6b8b\u9177\uff01
p1331
sg1224
V\u6211\u662f2017\u5e74\u6d59\u6c5f\u9ad8\u8003\u7684\u5b66\u751f\uff0c\u603b\u5206683\u5206\uff0c\u8d85\u51fa\u6d59\u6c5f\u4e00\u672c\u7ebf106\u5206\u3002\u6709\u4eba\u95ee\u6211\uff1a\u4f60\u662f\u4e00\u76f4\u4ee5\u6765\u5c31\u662f\u5b66\u9738\u5417\uff1f\u771f\u7684\u4e0d
p1332
sg1226
Vhttp://mmbiz.qpic.cn/mmbiz_jpg/4evxTIEZNSxiaN4G8bjJ1iaFvgezFtyicESxPSatsC9iaGrJkTQiaBRNU2M0t6k00T8BSClicnxmGicMvMMaXSicVXHDRQ/640?wxtype=jpeg&wxfrom=0
p1333
sg1228
Vhttp://mp.weixin.qq.com/s?__biz=MzA3NjEyMzQxNw==&mid=2653594664&idx=1&sn=070c6b0bc5e173d72fae2ffcdb31b62f&chksm=84b8185eb3cf91487616dbdd61693f82b4c0e4d7ca396692f1a3a232fbec24224a587cbce864&scene=0#rd
p1334
sa(dp1335
g1222
V\u767d\u4e00\u5ea6\u989c\u503c\u9006\u88ad\uff01\u8fd9\u6b3eSK-II\u7f8e\u767d\u7cbe\u534e\u5e73\u4ef7\u7248\uff0c\u4e0d\u52301\u5468\u5c31\u5356\u8131\u9500...
p1336
sg1224
V\u5176\u5b9e\uff0c\u627e\u5bf9\u65b9\u6cd5\u7f8e\u767d\u4e5f\u5f88\u7b80\u5355\uff01
p1337
sg1226
Vhttp://mmbiz.qpic.cn/mmbiz_jpg/4evxTIEZNSxiaN4G8bjJ1iaFvgezFtyicESPZLkiaPArJTUibqUz1VhpQf5rhEAib4PojFn16VIdW8fcWJvuzTic5FAjg/300?wxtype=jpeg&wxfrom=0
p1338
sg1228
Vhttp://mp.weixin.qq.com/s?__biz=MzA3NjEyMzQxNw==&mid=2653594664&idx=2&sn=7dfea5d1700518316b20033b9f7d6498&chksm=84b8185eb3cf9148cf081af46db3daa640e81cefcbb914883f74c585284db42002543b51a5ca&scene=0#rd
p1339
sa(dp1340
g1222
V6\u5f20\u56fe\u7247\uff0c\u4eba\u751f\u76846\u4e2a\u6b8b\u9177\u771f\u76f8
p1341
sg1224
V6\u5f20\u7167\u7247\uff0c6\u4e2a\u4eba\u751f\u9053\u7406\u3002\u7167\u72471 \u5a5a\u59fb\u3000\u3000\u5a5a\u59fb\u5c31\u5982\u8fd9\u5e45\u753b\uff0c\u65e0\u8bba\u8c01\u653e\u624b\uff0c\u53d7\u4f24\u7684\u90fd\u662f\u5b69\u5b50\uff01\u591a\u7ecf\u5178\u7684\u8bdd\uff0c\u591a\u725b\u7684\u914d\u56fe
p1342
sg1226
Vhttp://mmbiz.qpic.cn/mmbiz_jpg/4evxTIEZNSxiaN4G8bjJ1iaFvgezFtyicESLATaDjJpJTjiaX4dUJHoODeqUI1a4icicwaAxoXG4UGr3YZ2RhurP9gfw/300?wxtype=jpeg&wxfrom=0
p1343
sg1228
Vhttp://mp.weixin.qq.com/s?__biz=MzA3NjEyMzQxNw==&mid=2653594664&idx=3&sn=1c81542d5953eaf6d83591f3496d0726&chksm=84b8185eb3cf91481f9b73e81a1ac6e3f054142c414e6c2cc13c0d4fc6efdeea3e28c62b7af9&scene=0#rd
p1344
sa(dp1345
g1222
V\u5f53\u4eba\u6b7b\u4e86\uff0c\u5948\u4f55\u6865\u4e0a\u7ecf\u8fc7\u7684\u5730\u65b9\uff01\u770b\u9192\u4e86\u5f88\u591a\u4eba
p1346
sg1224
V\u6709\u4e2a\u4eba\u6b7b\u4e86\uff0c\u4ed6\u624d\u521a\u521a\u610f\u8bc6\u5230\u81ea\u5df1\u7684\u751f\u547d\u5982\u6b64\u77ed\u6682\u3002\u8fd9\u65f6\uff0c\u4ed6\u770b\u89c1\u4f5b\u7956\u624b\u62ce\u4e00\u4e2a\u7bb1\u5b50\u5411\u4ed6\u8d70\u6765\u3002\u4f5b\u7956\u8bf4\uff1a\u201c\u597d\u4e86\uff0c\u6211\u4eec\u8d70\u5427
p1347
sg1226
Vhttp://mmbiz.qpic.cn/mmbiz_jpg/4evxTIEZNSxiaN4G8bjJ1iaFvgezFtyicESzfNJWToUicRMicfVp06N8Wtjsic7bQTRK301NLPzOfYCFq75ic1MeKNyibA/300?wxtype=jpeg&wxfrom=0
p1348
sg1228
Vhttp://mp.weixin.qq.com/s?__biz=MzA3NjEyMzQxNw==&mid=2653594664&idx=4&sn=60d2698da8a2c0f4a81a1befe1d3c0fd&chksm=84b8185eb3cf914866281db94124f75ec1a6e19ad25d9f0844418af92db1e37fe9133b575e44&scene=0#rd
p1349
sa(dp1350
g1222
V\u5973\u661f\u4eec\u4f18\u96c5\u5230\u8001\u7684\u79d8\u5bc6\uff1a\u79bb\u4e0d\u5f00\u8fd9\u4e24\u6b3e\u55b7\u96fe\uff0c\u7f3a\u4e00\u4e0d\u53ef\uff01
p1351
sg1224
V\u60f3\u4e0d\u60f3\u6c38\u8fdc18\u5c81\uff1f\u90a3\u4f60\u9700\u8981\u770b\u770b\u8fd9\u7bc7\u6587\u7ae0\uff01
p1352
sg1226
Vhttp://mmbiz.qpic.cn/mmbiz_jpg/4evxTIEZNSxiaN4G8bjJ1iaFvgezFtyicESOGfV4qTgYUWsAP1kSvQeEIQtSk2Yr04bJ96pdWuXFKzWiazJG8jDdFw/300?wxtype=jpeg&wxfrom=0
p1353
sg1228
Vhttp://mp.weixin.qq.com/s?__biz=MzA3NjEyMzQxNw==&mid=2653594664&idx=5&sn=797ce0fea9304285416a144d85098d49&chksm=84b8185eb3cf91483996407be4347f4e940b124d85250ae298be587279ea5a22ffd24382544d&scene=0#rd
p1354
sa(dp1355
g1222
V2017\u6d17\u8111\u6700\u5389\u5bb3\u768410\u53e5\u8bdd\uff0c\u60a8\u6562\u770b\u5417\uff1f
p1356
sg1224
V\u7b2c\u4e00\u53e5\uff1a\u201c\u4eba\u90fd\u662f\u903c\u51fa\u6765\u7684\u201d\u3002 \u6bcf\u4e2a\u4eba\u90fd\u662f\u6709\u6f5c\u80fd\u7684\uff0c\u751f\u4e8e\u5b89\u4e50\uff0c\u6b7b\u4e8e\u5fe7\u60a3\uff0c\u6240\u4ee5\uff0c\u5f53\u9762\u5bf9\u538b\u529b\u7684\u65f6\u5019\uff0c\u4e0d\u8981\u7126\u71e5\uff0c\u4e5f\u8bb8
p1357
sg1226
Vhttp://mmbiz.qpic.cn/mmbiz_jpg/4evxTIEZNSxiaN4G8bjJ1iaFvgezFtyicES5CSnY1r8V2dp1U4wxLZcFxCm92IPWI8aN7gscNuY6mOM2pP22x53lQ/300?wxtype=jpeg&wxfrom=0
p1358
sg1228
Vhttp://mp.weixin.qq.com/s?__biz=MzA3NjEyMzQxNw==&mid=2653594664&idx=6&sn=c83a25c91f02696a1f793afb5716ff67&chksm=84b8185eb3cf9148e9bbead13eb90ec2943f7b25e23f66fe686079632a170bc8554de290ccc6&scene=0#rd
p1359
sa(dp1360
g1222
V6\u5757\u77f3\u5934\u9009\u4e00\u4e2a\uff0c\u9a6c\u4e0a\u770b\u900f\u4f60\u7684\u5185\u5fc3\uff01\u6709\u610f\u601d\uff01
p1361
sg1224
V\u4e0b\u9762\u8fd96\u5757\u77f3\u5934\uff0c\u8bf7\u9009\u51fa\u6700\u6293\u4f60\u773c\u7403\u7684\u90a3\u4e2a        \u6d4b\u3000\u3000\u8bd5\u3000\u3000\u7ed3\u3000\u3000\u679c\u7b2c\u4e00\u5757\u77f3\u5934\u3000\u3000\u8fd9\u5757\u534a\u900f\u660e\u7684\u84dd\u8272\u77f3\u5934
p1362
sg1226
Vhttp://mmbiz.qpic.cn/mmbiz_jpg/4evxTIEZNSxiaN4G8bjJ1iaFvgezFtyicESk4VB0icGsboMTSl5DQenYia9QibgZFeZCw3D1j1LeXH3mtibU9QwMkE46Q/300?wxtype=jpeg&wxfrom=0
p1363
sg1228
Vhttp://mp.weixin.qq.com/s?__biz=MzA3NjEyMzQxNw==&mid=2653594664&idx=7&sn=60142fb4dbda33c6f12a60b784cda39d&chksm=84b8185eb3cf91488761e402396ba088924fb7d8743ccc0376ffb768955aaacc12025b69f4ef&scene=0#rd
p1364
sa(dp1365
g1222
V2017\u5e74\u6700\u72e0\u76847\u4e2a\u6bb5\u5b50\uff0c\u80dc\u8bfb\u5341\u5e74\u4e66
p1366
sg1224
V01\u5f1f\u5b50\u95ee\u8001\u5e08\uff1a\u201c\u60a8\u80fd\u8c08\u8c08\u4eba\u7c7b\u7684\u5947\u602a\u4e4b\u5904\u5417\uff1f\u201d\u8001\u5e08\u7b54\u9053\uff1a\u201c\u4ed6\u4eec\u6025\u4e8e\u6210\u957f\uff0c\u7136\u540e\u53c8\u54c0\u53f9\u5931\u53bb\u7684\u7ae5\u5e74\u3002\u4ed6\u4eec\u4ee5\u5065\u5eb7\u6362\u53d6
p1367
sg1226
Vhttp://mmbiz.qpic.cn/mmbiz_jpg/4evxTIEZNSxiaN4G8bjJ1iaFvgezFtyicES7zLMlL0a9hU3FFL2wUXYiaLXfku2l8sAKeAlJcNHukib7qIBWsonI6XQ/300?wxtype=jpeg&wxfrom=0
p1368
sg1228
Vhttp://mp.weixin.qq.com/s?__biz=MzA3NjEyMzQxNw==&mid=2653594664&idx=8&sn=002dd86fb25dc9cc19c95ca6bf25e4a6&chksm=84b8185eb3cf914832cc964c4b7a5190090db5d207fb496f4d706ba1c534ccc46a729ec09bfb&scene=0#rd
p1369
sasg1230
L1516680562L
sg13
V\u8c46\u4e01\u6587\u6863
p1370
sa(dp1371
g11
V@0e1804549d379c7d359b0865122dbc09
p1372
sg1218
L5L
sg1219
(lp1373
(dp1374
g1222
V\u673a\u5668\u5b66\u4e60\u8001\u4e2d\u533b\uff1a\u5229\u7528\u5b66\u4e60\u66f2\u7ebf\u8bca\u65ad\u6a21\u578b\u7684\u504f\u5dee\u548c\u65b9\u5dee
p1375
sg1224
V\u5b66\u4e60\u66f2\u7ebf\u662f\u76d1\u7763\u5b66\u4e60\u7b97\u6cd5\u4e2d\u8bca\u65ad\u6a21\u578b bias \u548c variance \u7684\u5f88\u597d\u5de5\u5177\u3002\u672c\u6587\u5c06\u4ecb\u7ecd\u5982\u4f55\u4f7f\u7528 scikit-learn \u548c matplotlib \u6765\u751f\u6210\u5b66\u4e60\u66f2\u7ebf\uff0c\u4ee5\u53ca\u5982\u4f55\u4f7f\u7528\u5b66\u4e60\u66f2\u7ebf\u6765\u8bca\u65ad\u6a21\u578b\u7684 bias \u548c variance\u3002
p1376
sg1226
Vhttp://mmbiz.qpic.cn/mmbiz_jpg/KmXPKA19gW8tczbm2t36aqhGNEhrzhK0g0rbYTJM3pic2icP4CiaLxicu2TkxW8NyMVKVE4VKcHvq20zWrGD5Tp8iaw/640?wxtype=jpeg&wxfrom=0
p1377
sg1228
Vhttp://mp.weixin.qq.com/s?__biz=MzA3MzI4MjgzMw==&mid=2650736547&idx=1&sn=9c57bf436dee384038b1c9c8f884fbde&chksm=871ac3ddb06d4acb17009cc40f2e0bdb843505eab2ec09bf1d8c8fce8ff5ea27486683f8e754&scene=0#rd
p1378
sa(dp1379
g1222
V\u6df1\u5ea6 | \u6700\u4f18\u89e3\u7684\u5e73\u5766\u5ea6\u4e0e\u9c81\u68d2\u6027\uff0c\u6211\u4eec\u8be5\u5982\u4f55\u5ea6\u91cf\u6a21\u578b\u7684\u6cdb\u5316\u80fd\u529b
p1380
sg1224
V\u6df1\u5ea6\u7f51\u7edc\u6700\u4f18\u89e3\u9644\u8fd1\u7684\u5e73\u5766\u5ea6\u4e00\u76f4\u662f\u6211\u4eec\u7406\u89e3\u6a21\u578b\u6cdb\u5316\u6027\u80fd\u7684\u91cd\u70b9\uff0c\u901a\u5e38\u8f83\u4e3a\u5e73\u5766\u7684\u6700\u4f18\u89e3\u6709\u66f4\u597d\u7684\u9c81\u68d2\u6027\u3002\u800c\u672c\u6587\u4f5c\u8005\u5219\u8fdb\u4e00\u6b65\u63d0\u51fa\u4e00\u4e2a\u597d\u7684\u6307\u6807\u53ef\u80fd\u4e0d\u4ec5\u6d89\u53ca\u5e73\u5747\u635f\u5931\u51fd\u6570\u6781\u5c0f\u503c\u9644\u8fd1\u7684\u5e73\u5766\u5ea6\uff0c\u8fd8\u6d89\u53ca\u4e24\u4e2a\u5e73\u5766\u5ea6\u6307\u6807\u4e4b\u95f4\u7684\u6bd4\u7387\u3002
p1381
sg1226
Vhttp://mmbiz.qpic.cn/mmbiz_jpg/KmXPKA19gW8tczbm2t36aqhGNEhrzhK0qaJWsGnHAqshvVAOnB0RH2xf7Aib2gRNiaAicic9enj3WCDuVwAWibV7uDw/300?wxtype=jpeg&wxfrom=0
p1382
sg1228
Vhttp://mp.weixin.qq.com/s?__biz=MzA3MzI4MjgzMw==&mid=2650736547&idx=2&sn=bbbfcd0ae5f3399dce56a4a115d87d5c&chksm=871ac3ddb06d4acb46b0ba8c4387d6322b51c5894ca82e431f2bd753bad235ee1c47407a7baf&scene=0#rd
p1383
sa(dp1384
g1222
V\u8d44\u6e90 | \u6574\u5408\u5168\u90e8\u9876\u5c16\u76ee\u6807\u68c0\u6d4b\u7b97\u6cd5\uff1aFAIR\u5f00\u6e90Detectron
p1385
sg1224
V\u6628\u5929\uff0cFacebook AI \u7814\u7a76\u9662\uff08FAIR\uff09\u5f00\u6e90\u4e86 Detectron\uff0c\u4e1a\u5185\u6700\u4f73\u6c34\u5e73\u7684\u76ee\u6807\u68c0\u6d4b\u5e73\u53f0\u3002
p1386
sg1226
Vhttp://mmbiz.qpic.cn/mmbiz_jpg/KmXPKA19gW8tczbm2t36aqhGNEhrzhK0yHr8llH4vYNVXZ0XJ2hF8ocGjHp1avf1Qhke83qgyuAiaIfqIGf0wfw/300?wxtype=jpeg&wxfrom=0
p1387
sg1228
Vhttp://mp.weixin.qq.com/s?__biz=MzA3MzI4MjgzMw==&mid=2650736547&idx=3&sn=a326f17f832cec4827596291930e76dd&chksm=871ac3ddb06d4acb3ffc56ffd56b340d5f15b7180a8aff5a38ea41c3c4e41e8d96da4c5a0a08&scene=0#rd
p1388
sa(dp1389
g1222
V\u5b66\u754c | \u5982\u4f55\u901a\u8fc7\u65b9\u5dee\u504f\u79fb\u7406\u89e3\u6279\u5f52\u4e00\u5316\u4e0eDropout\u4e4b\u95f4\u7684\u51b2\u7a81
p1390
sg1224
V\u8fd1\u65e5\u5357\u4eac\u7406\u5de5\u5927\u5b66\u548c\u6e05\u534e\u5927\u5b66\u7684\u7814\u7a76\u8868\u660e Dropout \u5728\u7f51\u7edc\u6d4b\u8bd5\u7684\u65f6\u5019\u795e\u7ecf\u5143\u4f1a\u4ea7\u751f\u65b9\u5dee\u504f\u79fb\uff0c\u5e76\u8fdb\u4e00\u6b65\u5206\u6790\u4e0e\u7406\u89e3\u5982\u4f55\u80fd\u907f\u514d\u65b9\u5dee\u504f\u79fb\u98ce\u9669\uff0c\u5e76\u514b\u670d\u6279\u5f52\u4e00\u5316\u548c Dropout \u7ec4\u5408\u7684\u5c40\u9650\u6027\u3002
p1391
sg1226
Vhttp://mmbiz.qpic.cn/mmbiz_jpg/KmXPKA19gW8tczbm2t36aqhGNEhrzhK0T9nfsuREoEU0MDZpkmVqI93Z4vHEHo8Uvyh29NC18OOKHqXibKRJFzg/300?wxtype=jpeg&wxfrom=0
p1392
sg1228
Vhttp://mp.weixin.qq.com/s?__biz=MzA3MzI4MjgzMw==&mid=2650736547&idx=4&sn=d1318f4b85349de1026c0b0fb24e08bf&chksm=871ac3ddb06d4acbe9a79c41aff838b54383fc37d9b43456aa78fe59dbff06da1888d1782de0&scene=0#rd
p1393
sa(dp1394
g1222
V\u673a\u5668\u4e4b\u5fc3\u5b66\u751f\u8bfb\u8005\u798f\u5229\uff1a\u8fd9\u4e9b\u6d77\u5916\u534e\u4eba\u6559\u6388\u5728\u62db\u535a\u58eb\u751f\uff08\u7b2c\u4e8c\u671f\uff09
p1395
sg1224
V\u673a\u5668\u4e4b\u5fc3\u5b66\u751f\u8bfb\u8005\u798f\u5229\uff1a\u8fd9\u4e9b\u6d77\u5916\u534e\u4eba\u6559\u6388\u5728\u62db\u535a\u58eb\u751f\uff08\u7b2c\u4e8c\u671f\uff09
p1396
sg1226
Vhttp://mmbiz.qpic.cn/mmbiz_jpg/KmXPKA19gW8tczbm2t36aqhGNEhrzhK00ONAb5sQQgljHl3fAO65MWjlk9Es9vBXDedccwYwVMzro50Hrmt3AA/300?wxtype=jpeg&wxfrom=0
p1397
sg1228
Vhttp://mp.weixin.qq.com/s?__biz=MzA3MzI4MjgzMw==&mid=2650736547&idx=5&sn=6a3c2dca1717ca886726ba92fcadecbc&chksm=871ac3ddb06d4acbd24aac5f2dbda97dde74b75c35454dffbb74b651e30f79ed7414ca927aee&scene=0#rd
p1398
sasg1230
L1516680427L
sg13
V\u673a\u5668\u4e4b\u5fc3
p1399
sasVClickReportInterval
p1400
L600000L
s.