(lp0
(dp1
VUin
p2
L0L
sVUserName
p3
V@8a59944b03df151e73d548fe2ed0d1b87e3d05037dadb6bcf906228eec0ca229
p4
sVNickName
p5
V\u519c\u946b
p6
sVHeadImgUrl
p7
V/cgi-bin/mmwebwx-bin/webwxgeticon?seq=656481957&username=@8a59944b03df151e73d548fe2ed0d1b87e3d05037dadb6bcf906228eec0ca229&skey=@crypt_b1266bc9_04bf18fb8ff022a8b4e3c5d868291675
p8
sVContactFlag
p9
L1L
sVMemberCount
p10
L0L
sVMemberList
p11
(lp12
sVRemarkName
p13
V\u519c\u946b
p14
sVHideInputBarFlag
p15
L0L
sVSex
p16
L1L
sVSignature
p17
V\u6709\u4eba\u77e5\u9053\u6211\u9700\u8981\u4ec0\u4e48
p18
sVVerifyFlag
p19
L0L
sVOwnerUin
p20
L0L
sVPYInitial
p21
VNX
p22
sVPYQuanPin
p23
Vnongxin
p24
sVRemarkPYInitial
p25
VNX
p26
sVRemarkPYQuanPin
p27
Vnongxin
p28
sVStarFriend
p29
L0L
sVAppAccountFlag
p30
L0L
sVStatues
p31
L0L
sVAttrStatus
p32
L102437L
sVProvince
p33
V
p34
sVCity
p35
g34
sVAlias
p36
g34
sVSnsFlag
p37
L17L
sVUniFriend
p38
L0L
sVDisplayName
p39
g34
sVChatRoomId
p40
L0L
sVKeyWord
p41
g34
sVEncryChatRoomId
p42
g34
sVIsOwner
p43
L0L
sa(dp44
g2
L0L
sg3
V@6603c9f32246e0ac03c722c9c3d92c158a9312a384ac66e62a2128dd88747d9b
p45
sg5
V\u5f69\u5152
p46
sg7
V/cgi-bin/mmwebwx-bin/webwxgeticon?seq=656477180&username=@6603c9f32246e0ac03c722c9c3d92c158a9312a384ac66e62a2128dd88747d9b&skey=@crypt_b1266bc9_04bf18fb8ff022a8b4e3c5d868291675
p47
sg9
L1L
sg10
L0L
sg11
(lp48
sg13
V\u97e6\u5f69\u4ec1
p49
sg15
L0L
sg16
L2L
sg17
V\u90a3\u4e00\u523b\u7684\u552f\u7f8e\uff0c\uff0c\u90a3\u4e00\u523b\uff0c\u7eaf\u767d
p50
sg19
L0L
sg20
L0L
sg21
VCE
p51
sg23
Vcaier
p52
sg25
VWCR
p53
sg27
Vweicairen
p54
sg29
L0L
sg30
L0L
sg31
L0L
sg32
L4129L
sg33
g34
sg35
g34
sg36
g34
sg37
L1L
sg38
L0L
sg39
g34
sg40
L0L
sg41
g34
sg42
g34
sg43
L0L
sa(dp55
g2
L0L
sg3
V@0557e0aacf6ce0aec25fe3dfc300de03c224646115e6e0ce2942a72ccfa21e75
p56
sg5
VGetting better
p57
sg7
V/cgi-bin/mmwebwx-bin/webwxgeticon?seq=662779254&username=@0557e0aacf6ce0aec25fe3dfc300de03c224646115e6e0ce2942a72ccfa21e75&skey=@crypt_b1266bc9_04bf18fb8ff022a8b4e3c5d868291675
p58
sg9
L3L
sg10
L0L
sg11
(lp59
sg13
V\u9648\u8d85\u6bc5
p60
sg15
L0L
sg16
L1L
sg17
V\u6811\u6b32\u9759\u800c\u98ce\u4e0d\u6b62
p61
sg19
L0L
sg20
L0L
sg21
VGETTINGBETTER
p62
sg23
VGettingbetter
p63
sg25
VCCY
p64
sg27
Vchenchaoyi
p65
sg29
L0L
sg30
L0L
sg31
L0L
sg32
L102501L
sg33
V\u5e7f\u4e1c
p66
sg35
V\u4e2d\u5c71
p67
sg36
g34
sg37
L1L
sg38
L0L
sg39
g34
sg40
L0L
sg41
g34
sg42
g34
sg43
L0L
sa(dp68
g2
L0L
sg3
V@2c9e22489b126810fc396cfbc67515da522f47979db06b2097842fd2e10cb089
p69
sg5
V\u9b54\u672f\u5e08\u7684\u9009\u62e9
p70
sg7
V/cgi-bin/mmwebwx-bin/webwxgeticon?seq=662780727&username=@2c9e22489b126810fc396cfbc67515da522f47979db06b2097842fd2e10cb089&skey=@crypt_b1266bc9_04bf18fb8ff022a8b4e3c5d868291675
p71
sg9
L3L
sg10
L0L
sg11
(lp72
sg13
V\u9c81\u4f73\u8f89
p73
sg15
L0L
sg16
L1L
sg17
V15678311415
p74
sg19
L0L
sg20
L0L
sg21
VMSSDXZ
p75
sg23
Vmoshushidexuanze
p76
sg25
VLJH
p77
sg27
Vlujiahui
p78
sg29
L0L
sg30
L0L
sg31
L0L
sg32
L143865L
sg33
g34
sg35
g34
sg36
g34
sg37
L16L
sg38
L0L
sg39
g34
sg40
L0L
sg41
g34
sg42
g34
sg43
L0L
sa(dp79
g2
L0L
sg3
V@441d3ee9204835ffcdf40a37f6331d32
p80
sg5
VT.ai
p81
sg7
V/cgi-bin/mmwebwx-bin/webwxgeticon?seq=662808648&username=@441d3ee9204835ffcdf40a37f6331d32&skey=@crypt_b1266bc9_04bf18fb8ff022a8b4e3c5d868291675
p82
sg9
L65537L
sg10
L0L
sg11
(lp83
sg13
V\u7530\u7d2b\u4e91
p84
sg15
L0L
sg16
L2L
sg17
V\u5f52\u6765 <span class="emoji emoji1f450"></span>
p85
sg19
L0L
sg20
L0L
sg21
VTAI
p86
sg23
VTai
p87
sg25
VTZY
p88
sg27
Vtianziyun
p89
sg29
L0L
sg30
L0L
sg31
L0L
sg32
L101479L
sg33
V\u6e56\u5357
p90
sg35
V\u957f\u6c99
p91
sg36
g34
sg37
L49L
sg38
L0L
sg39
g34
sg40
L0L
sg41
Vxia
p92
sg42
g34
sg43
L0L
sa(dp93
g2
L0L
sg3
V@ff544474d5cdedb53050bb76384343f14393e4ee8799761c03895a621a4268e2
p94
sg5
VCruise Su
p95
sg7
V/cgi-bin/mmwebwx-bin/webwxgeticon?seq=662793469&username=@ff544474d5cdedb53050bb76384343f14393e4ee8799761c03895a621a4268e2&skey=@crypt_b1266bc9_04bf18fb8ff022a8b4e3c5d868291675
p96
sg9
L1L
sg10
L0L
sg11
(lp97
sg13
V\u77f3\u6842\u5112
p98
sg15
L0L
sg16
L1L
sg17
g34
sg19
L0L
sg20
L0L
sg21
VCRUISESU
p99
sg23
VCruiseSu
p100
sg25
VSGR
p101
sg27
Vshiguiru
p102
sg29
L0L
sg30
L0L
sg31
L0L
sg32
L37221L
sg33
VAscoli Piceno
p103
sg35
g34
sg36
g34
sg37
L17L
sg38
L0L
sg39
g34
sg40
L0L
sg41
g34
sg42
g34
sg43
L0L
sa(dp104
g2
L0L
sg3
V@5cefcd979d753fc3f5a1ab2239aac8ac9e9b1103c88bfbf8e0637231bfb1b17d
p105
sg5
V\u7231\u590f
p106
sg7
V/cgi-bin/mmwebwx-bin/webwxgeticon?seq=662815200&username=@5cefcd979d753fc3f5a1ab2239aac8ac9e9b1103c88bfbf8e0637231bfb1b17d&skey=@crypt_b1266bc9_04bf18fb8ff022a8b4e3c5d868291675
p107
sg9
L3L
sg10
L0L
sg11
(lp108
sg13
V\u9648\u5bb6\u77f3
p109
sg15
L0L
sg16
L1L
sg17
g34
sg19
L0L
sg20
L0L
sg21
VAX
p110
sg23
Vaixia
p111
sg25
VCJS
p112
sg27
Vchenjiashi
p113
sg29
L0L
sg30
L0L
sg31
L0L
sg32
L4197L
sg33
V\u5e7f\u897f
p114
sg35
V\u6842\u6797
p115
sg36
g34
sg37
L17L
sg38
L0L
sg39
g34
sg40
L0L
sg41
g34
sg42
g34
sg43
L0L
sa(dp116
g2
L0L
sg3
V@c836aeccc8a9716007dcc9689bb29bad75ffcdf0009df24c707167adf16d466d
p117
sg5
V\u5927\u54f2\u5927\u54f2\u5927\u54f2\u54e5\u54e5
p118
sg7
V/cgi-bin/mmwebwx-bin/webwxgeticon?seq=650571780&username=@c836aeccc8a9716007dcc9689bb29bad75ffcdf0009df24c707167adf16d466d&skey=@crypt_b1266bc9_04bf18fb8ff022a8b4e3c5d868291675
p119
sg9
L1L
sg10
L0L
sg11
(lp120
sg13
V\u9ec4\u54f2
p121
sg15
L0L
sg16
L1L
sg17
V\u51b7\u5728\u5916\u8868  \u5bd2\u5728\u5185\u5fc3
p122
sg19
L0L
sg20
L0L
sg21
VDZDZDZGG
p123
sg23
Vdazhedazhedazhegege
p124
sg25
VHZ
p125
sg27
Vhuangzhe
p126
sg29
L0L
sg30
L0L
sg31
L0L
sg32
L99367L
sg33
V\u5c71\u4e1c
p127
sg35
V\u83cf\u6cfd
p128
sg36
g34
sg37
L17L
sg38
L0L
sg39
g34
sg40
L0L
sg41
g34
sg42
g34
sg43
L0L
sa(dp129
g2
L0L
sg3
V@086a296ed0a50fdcfc26873e241fc250d6bdf0923454cb7b7433880e79c33ff7
p130
sg5
V\u5c0f\u5c0f\u7684bug
p131
sg7
V/cgi-bin/mmwebwx-bin/webwxgeticon?seq=662771643&username=@086a296ed0a50fdcfc26873e241fc250d6bdf0923454cb7b7433880e79c33ff7&skey=@crypt_b1266bc9_04bf18fb8ff022a8b4e3c5d868291675
p132
sg9
L1L
sg10
L0L
sg11
(lp133
sg13
V\u67f3\u864e
p134
sg15
L0L
sg16
L1L
sg17
g34
sg19
L0L
sg20
L0L
sg21
VXXDBUG
p135
sg23
Vxiaoxiaodebug
p136
sg25
VLH
p137
sg27
Vliuhu
p138
sg29
L0L
sg30
L0L
sg31
L0L
sg32
L16881765L
sg33
V\u6e56\u5317
p139
sg35
V\u5b5d\u611f
p140
sg36
g34
sg37
L177L
sg38
L0L
sg39
g34
sg40
L0L
sg41
g34
sg42
g34
sg43
L0L
sa(dp141
g2
L0L
sg3
V@ed140add9c3fa8fd496c6c4effdcd9b3f8111b56b3db37c22660f4edd12bb001
p142
sg5
V\u5415\u5e03\u8c82\u8749
p143
sg7
V/cgi-bin/mmwebwx-bin/webwxgeticon?seq=662769078&username=@ed140add9c3fa8fd496c6c4effdcd9b3f8111b56b3db37c22660f4edd12bb001&skey=@crypt_b1266bc9_04bf18fb8ff022a8b4e3c5d868291675
p144
sg9
L1L
sg10
L0L
sg11
(lp145
sg13
V\u4e07\u5251\u950b
p146
sg15
L0L
sg16
L1L
sg17
V\u6f2b\u6b65\u4eba\u751f\u8def.
p147
sg19
L0L
sg20
L0L
sg21
VLBDC
p148
sg23
Vlvbudiaochan
p149
sg25
VWJF
p150
sg27
Vwanjianfeng
p151
sg29
L0L
sg30
L0L
sg31
L0L
sg32
L233509L
sg33
V\u5e7f\u897f
p152
sg35
V\u5317\u6d77
p153
sg36
g34
sg37
L49L
sg38
L0L
sg39
g34
sg40
L0L
sg41
g34
sg42
g34
sg43
L0L
sa(dp154
g2
L0L
sg3
V@c2782947ebeb2970d9f5a82da2a713b9eff27f6f1da3e9c01d6f2bfe26967720
p155
sg5
V\u52c7\u5947
p156
sg7
V/cgi-bin/mmwebwx-bin/webwxgeticon?seq=662825191&username=@c2782947ebeb2970d9f5a82da2a713b9eff27f6f1da3e9c01d6f2bfe26967720&skey=@crypt_b1266bc9_04bf18fb8ff022a8b4e3c5d868291675
p157
sg9
L1L
sg10
L0L
sg11
(lp158
sg13
V\u52c7\u742a\u54e5
p159
sg15
L0L
sg16
L1L
sg17
V\u80fd\u591f\u8bf4\u51fa\u59d4\u5c48\u5e76\u4e0d\u7b97\u59d4\u5c48\u3001\u80fd\u591f\u62a2\u8d70\u7684\u7231\u4eba\u5e76\u4e0d\u7b97\u7231\u4eba
p160
sg19
L0L
sg20
L0L
sg21
VYQ
p161
sg23
Vyongqi
p162
sg25
VYQG
p163
sg27
Vyongqige
p164
sg29
L0L
sg30
L0L
sg31
L0L
sg32
L38397L
sg33
V\u6e56\u5317
p165
sg35
V\u5b5d\u611f
p166
sg36
g34
sg37
L17L
sg38
L0L
sg39
g34
sg40
L0L
sg41
g34
sg42
g34
sg43
L0L
sa(dp167
g2
L0L
sg3
V@06c56a4c39d4645053ab1416c96bfc2cc638ad5bdec70df11be58ffe5d071c98
p168
sg5
V\u5e73\u5e73\u6de1\u6de1
p169
sg7
V/cgi-bin/mmwebwx-bin/webwxgeticon?seq=662774978&username=@06c56a4c39d4645053ab1416c96bfc2cc638ad5bdec70df11be58ffe5d071c98&skey=@crypt_b1266bc9_04bf18fb8ff022a8b4e3c5d868291675
p170
sg9
L1L
sg10
L0L
sg11
(lp171
sg13
V\u5434\u8d35\u5e73
p172
sg15
L0L
sg16
L1L
sg17
g34
sg19
L0L
sg20
L0L
sg21
VPPDD
p173
sg23
Vpingpingdandan
p174
sg25
VWGP
p175
sg27
Vwuguiping
p176
sg29
L0L
sg30
L0L
sg31
L0L
sg32
L102525L
sg33
V\u5b89\u5fbd
p177
sg35
V\u516d\u5b89
p178
sg36
g34
sg37
L1L
sg38
L0L
sg39
g34
sg40
L0L
sg41
g34
sg42
g34
sg43
L0L
sa(dp179
g2
L0L
sg3
V@4b7a5237d5277e5b6c339ac8c9f6f62f9f7df2468a69a80482578301b4c231be
p180
sg5
V\u949f\u6d77
p181
sg7
V/cgi-bin/mmwebwx-bin/webwxgeticon?seq=650575292&username=@4b7a5237d5277e5b6c339ac8c9f6f62f9f7df2468a69a80482578301b4c231be&skey=@crypt_b1266bc9_04bf18fb8ff022a8b4e3c5d868291675
p182
sg9
L1L
sg10
L0L
sg11
(lp183
sg13
V\u53d4\u53d4
p184
sg15
L0L
sg16
L1L
sg17
V\u65e5\u843d\u897f\u5c71\u4f60\u4e0d\u966a\uff0c\u4e1c\u5c71\u518d\u8d77\u4f60\u662f\u8c01.....
p185
sg19
L0L
sg20
L0L
sg21
VZH
p186
sg23
Vzhonghai
p187
sg25
VSS
p188
sg27
Vshushu
p189
sg29
L0L
sg30
L0L
sg31
L0L
sg32
L102501L
sg33
V\u5c71\u4e1c
p190
sg35
V\u6f4d\u574a
p191
sg36
g34
sg37
L1L
sg38
L0L
sg39
g34
sg40
L0L
sg41
g34
sg42
g34
sg43
L0L
sa(dp192
g2
L0L
sg3
V@888d3d5a684721a708b0318d526c696005d2e4f5b4d20466b28813ea6ab8ee24
p193
sg5
V\u5c0f\u53ef
p194
sg7
V/cgi-bin/mmwebwx-bin/webwxgeticon?seq=662827073&username=@888d3d5a684721a708b0318d526c696005d2e4f5b4d20466b28813ea6ab8ee24&skey=@crypt_b1266bc9_04bf18fb8ff022a8b4e3c5d868291675
p195
sg9
L3L
sg10
L0L
sg11
(lp196
sg13
V\u4f4d\u51b0\u53ef
p197
sg15
L0L
sg16
L0L
sg17
g34
sg19
L0L
sg20
L0L
sg21
VXK
p198
sg23
Vxiaoke
p199
sg25
VWBK
p200
sg27
Vweibingke
p201
sg29
L0L
sg30
L0L
sg31
L0L
sg32
L4133L
sg33
g34
sg35
g34
sg36
g34
sg37
L1L
sg38
L0L
sg39
g34
sg40
L0L
sg41
g34
sg42
g34
sg43
L0L
sa(dp202
g2
L0L
sg3
V@1fb329ef23017f4dc8e6c7bb0b6f71676177e8ee13d5579d2d80199340edde6e
p203
sg5
V\u8881\u8f89
p204
sg7
V/cgi-bin/mmwebwx-bin/webwxgeticon?seq=662833573&username=@1fb329ef23017f4dc8e6c7bb0b6f71676177e8ee13d5579d2d80199340edde6e&skey=@crypt_b1266bc9_04bf18fb8ff022a8b4e3c5d868291675
p205
sg9
L3L
sg10
L0L
sg11
(lp206
sg13
g34
sg15
L0L
sg16
L0L
sg17
g34
sg19
L0L
sg20
L0L
sg21
VYH
p207
sg23
Vyuanhui
p208
sg25
g34
sg27
g34
sg29
L0L
sg30
L0L
sg31
L0L
sg32
L4133L
sg33
g34
sg35
g34
sg36
g34
sg37
L1L
sg38
L0L
sg39
g34
sg40
L0L
sg41
g34
sg42
g34
sg43
L0L
sa(dp209
g2
L0L
sg3
V@1e268bf812d7078a423b8fe39ae7c9c4d1c0c34ab2af9b93f9a62faad9762860
p210
sg5
V\u6c5f\u6d4163
p211
sg7
V/cgi-bin/mmwebwx-bin/webwxgeticon?seq=662824560&username=@1e268bf812d7078a423b8fe39ae7c9c4d1c0c34ab2af9b93f9a62faad9762860&skey=@crypt_b1266bc9_04bf18fb8ff022a8b4e3c5d868291675
p212
sg9
L1L
sg10
L0L
sg11
(lp213
sg13
V\u5218\u5409\u6587
p214
sg15
L0L
sg16
L1L
sg17
V\u6211\u60f3\u53d8\u000a\u53d8\u6210\u4e00\u68f5\u6811\u000a\u5f00\u5fc3\u65f6\uff0c\u5f00\u82b1\u000a\u4e0d\u5f00\u5fc3\u65f6\uff0c\u843d\u53f6
p215
sg19
L0L
sg20
L0L
sg21
VJL63
p216
sg23
Vjiangliu63
p217
sg25
VLJW
p218
sg27
Vliujiwen
p219
sg29
L0L
sg30
L0L
sg31
L0L
sg32
L33666279L
sg33
V\u5e7f\u897f
p220
sg35
V\u68a7\u5dde
p221
sg36
g34
sg37
L17L
sg38
L0L
sg39
g34
sg40
L0L
sg41
g34
sg42
g34
sg43
L0L
sa(dp222
g2
L0L
sg3
V@865fa8ca12b31facc03e45698e22e06d5b7464ee0fe6f910e37f5f290ded1119
p223
sg5
V\u8bd7\u4e24\u884c
p224
sg7
V/cgi-bin/mmwebwx-bin/webwxgeticon?seq=662829482&username=@865fa8ca12b31facc03e45698e22e06d5b7464ee0fe6f910e37f5f290ded1119&skey=@crypt_b1266bc9_04bf18fb8ff022a8b4e3c5d868291675
p225
sg9
L3L
sg10
L0L
sg11
(lp226
sg13
V\u66f9\u7b75\u4e1c
p227
sg15
L0L
sg16
L1L
sg17
V\u8fd0\u52a8\u3001\u5386\u53f2\u3001\u7eaa\u5f55\u7247
p228
sg19
L0L
sg20
L0L
sg21
VSLX
p229
sg23
Vshiliangxing
p230
sg25
VCYD
p231
sg27
Vcaoyandong
p232
sg29
L0L
sg30
L0L
sg31
L0L
sg32
L4197L
sg33
V\u9655\u897f
p233
sg35
V\u897f\u5b89
p234
sg36
g34
sg37
L17L
sg38
L0L
sg39
g34
sg40
L0L
sg41
g34
sg42
g34
sg43
L0L
sa(dp235
g2
L0L
sg3
V@fb1aa5ee6b2ecaae1b2bb94b7e9dd63f1fd830d038e0737bd68736535432936f
p236
sg5
V\u840c\u82bd
p237
sg7
V/cgi-bin/mmwebwx-bin/webwxgeticon?seq=662846168&username=@fb1aa5ee6b2ecaae1b2bb94b7e9dd63f1fd830d038e0737bd68736535432936f&skey=@crypt_b1266bc9_04bf18fb8ff022a8b4e3c5d868291675
p238
sg9
L1L
sg10
L0L
sg11
(lp239
sg13
V\u9ec4\u6dd1\u82b3
p240
sg15
L0L
sg16
L2L
sg17
g34
sg19
L0L
sg20
L0L
sg21
VMY
p241
sg23
Vmengya
p242
sg25
VHSF
p243
sg27
Vhuangshufang
p244
sg29
L0L
sg30
L0L
sg31
L0L
sg32
L16822373L
sg33
V\u5e7f\u897f
p245
sg35
V\u6842\u6797
p246
sg36
g34
sg37
L17L
sg38
L0L
sg39
g34
sg40
L0L
sg41
g34
sg42
g34
sg43
L0L
sa(dp247
g2
L0L
sg3
V@3117a2dd288bcac94f5972a9f32034ccc959c23d31a8e05ff70b9d75d6219ddc
p248
sg5
V\u7ea2\u57ce\u5356\u6c34\u4eba
p249
sg7
V/cgi-bin/mmwebwx-bin/webwxgeticon?seq=662848791&username=@3117a2dd288bcac94f5972a9f32034ccc959c23d31a8e05ff70b9d75d6219ddc&skey=@crypt_b1266bc9_04bf18fb8ff022a8b4e3c5d868291675
p250
sg9
L3L
sg10
L0L
sg11
(lp251
sg13
V\u738b\u6653\u5e08\u59d0
p252
sg15
L0L
sg16
L2L
sg17
V\u4e3b\u94f6 \u4f60\u5df2\u7ecf\u4e00\u5206\u949f\u6ca1\u6709\u7406\u6211\u4e86\u273a\u25df(\u2217\u275b\u0e31\u1d17\u275b\u0e31\u2217)\u25de\u273a
p253
sg19
L0L
sg20
L0L
sg21
VHCMSR
p254
sg23
Vhongchengmaishuiren
p255
sg25
VWXSJ
p256
sg27
Vwangxiaoshijie
p257
sg29
L0L
sg30
L0L
sg31
L0L
sg32
L98621L
sg33
V\u9655\u897f
p258
sg35
V\u897f\u5b89
p259
sg36
g34
sg37
L17L
sg38
L0L
sg39
g34
sg40
L0L
sg41
g34
sg42
g34
sg43
L0L
sa(dp260
g2
L0L
sg3
V@db4fe686940f9bb2846a68665fc93c4eb93df000f32b18798ae7e5587b4bf166
p261
sg5
V\u6d77\u9614\u5929\u7a7a
p262
sg7
V/cgi-bin/mmwebwx-bin/webwxgeticon?seq=662848818&username=@db4fe686940f9bb2846a68665fc93c4eb93df000f32b18798ae7e5587b4bf166&skey=@crypt_b1266bc9_04bf18fb8ff022a8b4e3c5d868291675
p263
sg9
L1L
sg10
L0L
sg11
(lp264
sg13
V\u53d4\u53d4
p265
sg15
L0L
sg16
L1L
sg17
V\u597d\u597d\u6d3b\uff0c\u56e0\u4e3a\u6211\u4eec\u4f1a\u8001\u5f88\u4e45\u5f88\u4e45......
p266
sg19
L0L
sg20
L0L
sg21
VHKTK
p267
sg23
Vhaikuotiankong
p268
sg25
VSS
p269
sg27
Vshushu
p270
sg29
L0L
sg30
L0L
sg31
L0L
sg32
L2201789L
sg33
V\u6e56\u5317
p271
sg35
V\u6b66\u6c49
p272
sg36
g34
sg37
L49L
sg38
L0L
sg39
g34
sg40
L0L
sg41
g34
sg42
g34
sg43
L0L
sa(dp273
g2
L0L
sg3
V@0cde6bf80ca54109ada2f86994b0e3cffed256f595599dbb9ca0b3f84db6a562
p274
sg5
VMr.yuan
p275
sg7
V/cgi-bin/mmwebwx-bin/webwxgeticon?seq=662767212&username=@0cde6bf80ca54109ada2f86994b0e3cffed256f595599dbb9ca0b3f84db6a562&skey=@crypt_b1266bc9_04bf18fb8ff022a8b4e3c5d868291675
p276
sg9
L3L
sg10
L0L
sg11
(lp277
sg13
V\u6811\u5f3a\u53d4
p278
sg15
L0L
sg16
L0L
sg17
g34
sg19
L0L
sg20
L0L
sg21
VMRYUAN
p279
sg23
VMryuan
p280
sg25
VSQS
p281
sg27
Vshuqiangshu
p282
sg29
L0L
sg30
L0L
sg31
L0L
sg32
L6405L
sg33
g34
sg35
g34
sg36
g34
sg37
L129L
sg38
L0L
sg39
g34
sg40
L0L
sg41
g34
sg42
g34
sg43
L0L
sa(dp283
g2
L0L
sg3
V@54d12ac29608d43a14823bc8098b4bf15281fff0eac1cb4593c4dc47669cded0
p284
sg5
VCaroline
p285
sg7
V/cgi-bin/mmwebwx-bin/webwxgeticon?seq=662790493&username=@54d12ac29608d43a14823bc8098b4bf15281fff0eac1cb4593c4dc47669cded0&skey=@crypt_b1266bc9_04bf18fb8ff022a8b4e3c5d868291675
p286
sg9
L1L
sg10
L0L
sg11
(lp287
sg13
V\u7518\u4e3d\u82f1
p288
sg15
L0L
sg16
L2L
sg17
g34
sg19
L0L
sg20
L0L
sg21
VCAROLINE
p289
sg23
VCaroline
p290
sg25
VGLY
p291
sg27
Vganliying
p292
sg29
L0L
sg30
L0L
sg31
L0L
sg32
L17013799L
sg33
V\u5e7f\u897f
p293
sg35
V\u5357\u5b81
p294
sg36
g34
sg37
L17L
sg38
L0L
sg39
g34
sg40
L0L
sg41
Vyin
p295
sg42
g34
sg43
L0L
sa(dp296
g2
L0L
sg3
V@8f053217451d6815f3f908164f6deb862fa03a288da1727eaa9b2fc1dfdfafcb
p297
sg5
V\u6c99\u6cb3\u5f20\u5b66\u53cb
p298
sg7
V/cgi-bin/mmwebwx-bin/webwxgeticon?seq=662823472&username=@8f053217451d6815f3f908164f6deb862fa03a288da1727eaa9b2fc1dfdfafcb&skey=@crypt_b1266bc9_04bf18fb8ff022a8b4e3c5d868291675
p299
sg9
L65537L
sg10
L0L
sg11
(lp300
sg13
V\u5f20\u96c4\u5f6a
p301
sg15
L0L
sg16
L1L
sg17
V\u8017\u5c3d\u9752\u6625\u6f14\u4e00\u51fa\u8352\u5510\u7684\u620f\u3002
p302
sg19
L0L
sg20
L0L
sg21
VSHZXY
p303
sg23
Vshahezhangxueyou
p304
sg25
VZXB
p305
sg27
Vzhangxiongbiao
p306
sg29
L0L
sg30
L0L
sg31
L0L
sg32
L102629L
sg33
V\u6e56\u5317
p307
sg35
V\u6b66\u6c49
p308
sg36
g34
sg37
L1L
sg38
L0L
sg39
g34
sg40
L0L
sg41
g34
sg42
g34
sg43
L0L
sa(dp309
g2
L0L
sg3
V@2e3f738a27790f2aaf79ac1e86ec9730ee0299d33c392626163c33f5227aed31
p310
sg5
V\u59dc\u5929\u653e
p311
sg7
V/cgi-bin/mmwebwx-bin/webwxgeticon?seq=662805512&username=@2e3f738a27790f2aaf79ac1e86ec9730ee0299d33c392626163c33f5227aed31&skey=@crypt_b1266bc9_04bf18fb8ff022a8b4e3c5d868291675
p312
sg9
L65793L
sg10
L0L
sg11
(lp313
sg13
V\u59dc\u5929\u653e
p314
sg15
L0L
sg16
L1L
sg17
V\u4e00\u4e2a\u6253\u6742\u7684
p315
sg19
L0L
sg20
L0L
sg21
VJTF
p316
sg23
Vjiangtianfang
p317
sg25
VJTF
p318
sg27
Vjiangtianfang
p319
sg29
L0L
sg30
L0L
sg31
L0L
sg32
L111103L
sg33
V\u9ed1\u9f99\u6c5f
p320
sg35
V\u54c8\u5c14\u6ee8
p321
sg36
g34
sg37
L145L
sg38
L0L
sg39
g34
sg40
L0L
sg41
g34
sg42
g34
sg43
L0L
sa(dp322
g2
L0L
sg3
V@4af9650e960718c8714bad4ab3dd196661a8458b6b93841bc48b66245edda163
p323
sg5
V\u5f20\u5c0f\u534e_\u897f\u7535
p324
sg7
V/cgi-bin/mmwebwx-bin/webwxgeticon?seq=662776750&username=@4af9650e960718c8714bad4ab3dd196661a8458b6b93841bc48b66245edda163&skey=@crypt_b1266bc9_04bf18fb8ff022a8b4e3c5d868291675
p325
sg9
L1L
sg10
L0L
sg11
(lp326
sg13
V\u5f20\u5c0f\u534e\u8001\u5e08
p327
sg15
L0L
sg16
L1L
sg17
V\u50cf\u5916\u884c\u4e00\u6837\u601d\u8003\uff0c\u50cf\u4e13\u5bb6\u4e00\u6837\u5b9e\u8df5
p328
sg19
L0L
sg20
L0L
sg21
VZXHXD
p329
sg23
Vzhangxiaohuaxidian
p330
sg25
VZXHLS
p331
sg27
Vzhangxiaohualaoshi
p332
sg29
L0L
sg30
L0L
sg31
L0L
sg32
L4133L
sg33
V\u9655\u897f
p333
sg35
V\u897f\u5b89
p334
sg36
g34
sg37
L1L
sg38
L0L
sg39
g34
sg40
L0L
sg41
g34
sg42
g34
sg43
L0L
sa(dp335
g2
L0L
sg3
V@ff99da49afd41854c8742ca56c803657f4893500c43f5e5f7f8d650ad144b3cc
p336
sg5
VGhost
p337
sg7
V/cgi-bin/mmwebwx-bin/webwxgeticon?seq=656481638&username=@ff99da49afd41854c8742ca56c803657f4893500c43f5e5f7f8d650ad144b3cc&skey=@crypt_b1266bc9_04bf18fb8ff022a8b4e3c5d868291675
p338
sg9
L1L
sg10
L0L
sg11
(lp339
sg13
V\u68a6\u68a6\u59d0
p340
sg15
L0L
sg16
L2L
sg17
V\u5728\u5948\u4f55\u6865\u524d\u6446\u644a\u5356\u5b5f\u5a46\u6c64\u3002
p341
sg19
L0L
sg20
L0L
sg21
VGHOST
p342
sg23
VGhost
p343
sg25
VMMJ
p344
sg27
Vmengmengjie
p345
sg29
L0L
sg30
L0L
sg31
L0L
sg32
L4605L
sg33
V\u9655\u897f
p346
sg35
V\u6986\u6797
p347
sg36
g34
sg37
L1L
sg38
L0L
sg39
g34
sg40
L0L
sg41
g34
sg42
g34
sg43
L0L
sa(dp348
g2
L0L
sg3
V@b02b2cce176ab10dd4e205190b7686c613efe6fc55287aefed333db5637f544d
p349
sg5
V\u4e0d\u5fd8\u521d\u5fc3
p350
sg7
V/cgi-bin/mmwebwx-bin/webwxgeticon?seq=639766056&username=@b02b2cce176ab10dd4e205190b7686c613efe6fc55287aefed333db5637f544d&skey=@crypt_b1266bc9_04bf18fb8ff022a8b4e3c5d868291675
p351
sg9
L1L
sg10
L0L
sg11
(lp352
sg13
V\u949f\u6811\u793c
p353
sg15
L0L
sg16
L0L
sg17
g34
sg19
L0L
sg20
L0L
sg21
VBWCX
p354
sg23
Vbuwangchuxin
p355
sg25
VZSL
p356
sg27
Vzhongshuli
p357
sg29
L0L
sg30
L0L
sg31
L0L
sg32
L4133L
sg33
g34
sg35
g34
sg36
g34
sg37
L17L
sg38
L0L
sg39
g34
sg40
L0L
sg41
g34
sg42
g34
sg43
L0L
sa(dp358
g2
L0L
sg3
V@4cf3ac5188a2fcfcb8a2020f72b81024effb5d8a64df8200c06152c89b97da9a
p359
sg5
V\u675c\u6c38\u742a
p360
sg7
V/cgi-bin/mmwebwx-bin/webwxgeticon?seq=662829211&username=@4cf3ac5188a2fcfcb8a2020f72b81024effb5d8a64df8200c06152c89b97da9a&skey=@crypt_b1266bc9_04bf18fb8ff022a8b4e3c5d868291675
p361
sg9
L65793L
sg10
L0L
sg11
(lp362
sg13
g34
sg15
L0L
sg16
L1L
sg17
g34
sg19
L0L
sg20
L0L
sg21
VDYQ
p363
sg23
Vduyongqi
p364
sg25
g34
sg27
g34
sg29
L0L
sg30
L0L
sg31
L0L
sg32
L16879717L
sg33
V\u5b81\u590f
p365
sg35
V\u4e2d\u536b
p366
sg36
g34
sg37
L17L
sg38
L0L
sg39
g34
sg40
L0L
sg41
g34
sg42
g34
sg43
L0L
sa(dp367
g2
L0L
sg3
V@a148d0c9b9e17d787ca31db8e48864835d7e410cc5a865d9a721729e071ee79a
p368
sg5
V\u674e\u79c0\u82b3
p369
sg7
V/cgi-bin/mmwebwx-bin/webwxgeticon?seq=662844736&username=@a148d0c9b9e17d787ca31db8e48864835d7e410cc5a865d9a721729e071ee79a&skey=@crypt_b1266bc9_04bf18fb8ff022a8b4e3c5d868291675
p370
sg9
L1L
sg10
L0L
sg11
(lp371
sg13
V\u674e\u79c0\u82b3
p372
sg15
L0L
sg16
L0L
sg17
g34
sg19
L0L
sg20
L0L
sg21
VLXF
p373
sg23
Vlixiufang
p374
sg25
VLXF
p375
sg27
Vlixiufang
p376
sg29
L0L
sg30
L0L
sg31
L0L
sg32
L102437L
sg33
g34
sg35
g34
sg36
g34
sg37
L1L
sg38
L0L
sg39
g34
sg40
L0L
sg41
g34
sg42
g34
sg43
L0L
sa(dp377
g2
L0L
sg3
V@f584e4d06d4884cd6560f2ee349d98681ce8e7a85bd82798235b73c960edd662
p378
sg5
V\u98ce\u96ea\u5f52\u4eba\uff5e
p379
sg7
V/cgi-bin/mmwebwx-bin/webwxgeticon?seq=662769436&username=@f584e4d06d4884cd6560f2ee349d98681ce8e7a85bd82798235b73c960edd662&skey=@crypt_b1266bc9_04bf18fb8ff022a8b4e3c5d868291675
p380
sg9
L1L
sg10
L0L
sg11
(lp381
sg13
V\u738b\u723d\u723d
p382
sg15
L0L
sg16
L1L
sg17
V\u6211\u672c\u5fae\u672b\u51e1\u5c18\uff0c\u53ef\u4e5f\u5fc3\u5411\u5929\u7a7a
p383
sg19
L0L
sg20
L0L
sg21
VFXGR
p384
sg23
Vfengxueguiren
p385
sg25
VWSS
p386
sg27
Vwangshuangshuang
p387
sg29
L0L
sg30
L0L
sg31
L0L
sg32
L102589L
sg33
V\u9ed1\u9f99\u6c5f
p388
sg35
V\u54c8\u5c14\u6ee8
p389
sg36
g34
sg37
L17L
sg38
L0L
sg39
g34
sg40
L0L
sg41
g34
sg42
g34
sg43
L0L
sa(dp390
g2
L0L
sg3
V@6308e7a740b3373e67d4939b13ebf7c73fc95b05f98d5de5c19e65424433d6a9
p391
sg5
V\u8349\u660e\u3001
p392
sg7
V/cgi-bin/mmwebwx-bin/webwxgeticon?seq=662818127&username=@6308e7a740b3373e67d4939b13ebf7c73fc95b05f98d5de5c19e65424433d6a9&skey=@crypt_b1266bc9_04bf18fb8ff022a8b4e3c5d868291675
p393
sg9
L1L
sg10
L0L
sg11
(lp394
sg13
V\u6768\u840c
p395
sg15
L0L
sg16
L1L
sg17
g34
sg19
L0L
sg20
L0L
sg21
VCM
p396
sg23
Vcaoming
p397
sg25
VYM
p398
sg27
Vyangmeng
p399
sg29
L0L
sg30
L0L
sg31
L0L
sg32
L33656933L
sg33
V\u56db\u5ddd
p400
sg35
V\u8d44\u9633
p401
sg36
g34
sg37
L1L
sg38
L0L
sg39
g34
sg40
L0L
sg41
g34
sg42
g34
sg43
L0L
sa(dp402
g2
L0L
sg3
V@fefe9ef51ba5ee994c76e12324a3bd60f2ebc5a003986190afda111e0050a5fc
p403
sg5
V\u9648\u4f73\u4f1f
p404
sg7
V/cgi-bin/mmwebwx-bin/webwxgeticon?seq=662829526&username=@fefe9ef51ba5ee994c76e12324a3bd60f2ebc5a003986190afda111e0050a5fc&skey=@crypt_b1266bc9_04bf18fb8ff022a8b4e3c5d868291675
p405
sg9
L1L
sg10
L0L
sg11
(lp406
sg13
V\u9648\u4f73\u4f1f
p407
sg15
L0L
sg16
L1L
sg17
V\u6015\u4ec0\u4e48\u771f\u7406\u65e0\u7a77\uff0c\u8fdb\u4e00\u5bf8\u6709\u4e00\u5bf8\u7684\u6b22\u559c\u3002
p408
sg19
L0L
sg20
L0L
sg21
VCJW
p409
sg23
Vchenjiawei
p410
sg25
VCJW
p411
sg27
Vchenjiawei
p412
sg29
L0L
sg30
L0L
sg31
L0L
sg32
L232483L
sg33
VNorth Carolina
p413
sg35
VChapel Hill Town
p414
sg36
g34
sg37
L49L
sg38
L0L
sg39
g34
sg40
L0L
sg41
g34
sg42
g34
sg43
L0L
sa(dp415
g2
L0L
sg3
V@91a9b0cd2a9aed5fa90e3103cef6cd10e18a391177f61108a718b539e697b54d
p416
sg5
VJack_UCASer
p417
sg7
V/cgi-bin/mmwebwx-bin/webwxgeticon?seq=662836455&username=@91a9b0cd2a9aed5fa90e3103cef6cd10e18a391177f61108a718b539e697b54d&skey=@crypt_b1266bc9_04bf18fb8ff022a8b4e3c5d868291675
p418
sg9
L1L
sg10
L0L
sg11
(lp419
sg13
V\u738b\u8fdc
p420
sg15
L0L
sg16
L1L
sg17
V\u4e3a\u68a6\u60f3\uff0cfighting !
p421
sg19
L0L
sg20
L0L
sg21
VJACKUCASER
p422
sg23
VJackUCASer
p423
sg25
VWY
p424
sg27
Vwangyuan
p425
sg29
L0L
sg30
L0L
sg31
L0L
sg32
L104549L
sg33
V\u5317\u4eac
p426
sg35
V\u6000\u67d4
p427
sg36
g34
sg37
L1L
sg38
L0L
sg39
g34
sg40
L0L
sg41
g34
sg42
g34
sg43
L0L
sa(dp428
g2
L0L
sg3
V@4288e3bbe016272b47418970d967ac43294fa16d8abe1f75cda13f84b36b992a
p429
sg5
VJACK_GUETer
p430
sg7
V/cgi-bin/mmwebwx-bin/webwxgeticon?seq=662825806&username=@4288e3bbe016272b47418970d967ac43294fa16d8abe1f75cda13f84b36b992a&skey=@crypt_b1266bc9_04bf18fb8ff022a8b4e3c5d868291675
p431
sg9
L1L
sg10
L0L
sg11
(lp432
sg13
V\u738b\u8fdc
p433
sg15
L0L
sg16
L1L
sg17
V\u53ea\u6709\u7ed3\u679c\u7f8e\u597d\uff0c\u8fc7\u7a0b\u624d\u91cd\u8981
p434
sg19
L0L
sg20
L0L
sg21
VJACKGUETER
p435
sg23
VJACKGUETer
p436
sg25
VWY
p437
sg27
Vwangyuan
p438
sg29
L0L
sg30
L0L
sg31
L0L
sg32
L235965L
sg33
V\u5b89\u5fbd
p439
sg35
V\u516d\u5b89
p440
sg36
g34
sg37
L17L
sg38
L0L
sg39
g34
sg40
L0L
sg41
g34
sg42
g34
sg43
L0L
sa(dp441
g2
L0L
sg3
V@a0ec85854d3945dffeb501586cd12a5f
p442
sg5
V<span class="emoji emoji1f48b"></span>Katrina.<span class="emoji emoji2708"></span>.W
p443
sg7
V/cgi-bin/mmwebwx-bin/webwxgeticon?seq=662827608&username=@a0ec85854d3945dffeb501586cd12a5f&skey=@crypt_b1266bc9_04bf18fb8ff022a8b4e3c5d868291675
p444
sg9
L65793L
sg10
L0L
sg11
(lp445
sg13
V\u6211\u662f\u5361\u59d0
p446
sg15
L0L
sg16
L2L
sg17
V\u5cad\u6df1\u5e38\u5f97\u86df\u9f99\u5728\u2026\u000a\u000a \u68a7\u9ad8\u81ea\u6709\u51e4\u51f0\u6816\u4e28
p447
sg19
L0L
sg20
L0L
sg21
VSPANCLASSEMOJIEMOJI1F48BSPANKATRINASPANCLASSEMOJIEMOJI2708SPANW
p448
sg23
Vspanclassemojiemoji1f48bspanKatrinaspanclassemojiemoji2708spanW
p449
sg25
VWSKJ
p450
sg27
Vwoshikajie
p451
sg29
L0L
sg30
L0L
sg31
L0L
sg32
L108647L
sg33
V\u5e7f\u897f
p452
sg35
V\u6842\u6797
p453
sg36
g34
sg37
L49L
sg38
L0L
sg39
g34
sg40
L0L
sg41
VClo
p454
sg42
g34
sg43
L0L
sa(dp455
g2
L0L
sg3
V@f833e3747e87dc518d3b8475649a7da2737688ea125480afaa183a7ffcc99fd6
p456
sg5
V\u5c0f\u987d\u7ae5
p457
sg7
V/cgi-bin/mmwebwx-bin/webwxgeticon?seq=662837712&username=@f833e3747e87dc518d3b8475649a7da2737688ea125480afaa183a7ffcc99fd6&skey=@crypt_b1266bc9_04bf18fb8ff022a8b4e3c5d868291675
p458
sg9
L1L
sg10
L0L
sg11
(lp459
sg13
V\u6c99\u96ea
p460
sg15
L0L
sg16
L2L
sg17
V\u53ea\u505a\u4e00\u4ef6\u4e8b\u513f\uff0c\u4e13\u6ce8\u7684\u529b\u91cf\u3002
p461
sg19
L0L
sg20
L0L
sg21
VXWT
p462
sg23
Vxiaowantong
p463
sg25
VSX
p464
sg27
Vshaxue
p465
sg29
L0L
sg30
L0L
sg31
L0L
sg32
L4133L
sg33
V\u5409\u6797
p466
sg35
V\u5409\u6797
p467
sg36
g34
sg37
L17L
sg38
L0L
sg39
g34
sg40
L0L
sg41
g34
sg42
g34
sg43
L0L
sa(dp468
g2
L0L
sg3
V@3ff680ef86e152bdedd9b0e1565bd3d2ca1ff41cbee4e360e713336bf42db4a6
p469
sg5
V\u68a6
p470
sg7
V/cgi-bin/mmwebwx-bin/webwxgeticon?seq=662826102&username=@3ff680ef86e152bdedd9b0e1565bd3d2ca1ff41cbee4e360e713336bf42db4a6&skey=@crypt_b1266bc9_04bf18fb8ff022a8b4e3c5d868291675
p471
sg9
L1L
sg10
L0L
sg11
(lp472
sg13
V\u5b8b\u6587\u4eae
p473
sg15
L0L
sg16
L1L
sg17
V\u6240\u8ffd\u9010\u7684\u4e0d\u8fc7\u68a6\u4e00\u573a \u68a6\u9192\u65f6\u6ce1\u6cab\u4ea6\u7834\u706d
p474
sg19
L0L
sg20
L0L
sg21
VM
p475
sg23
Vmeng
p476
sg25
VSWL
p477
sg27
Vsongwenliang
p478
sg29
L0L
sg30
L0L
sg31
L0L
sg32
L16912677L
sg33
VSligo
p479
sg35
g34
sg36
g34
sg37
L1L
sg38
L0L
sg39
g34
sg40
L0L
sg41
g34
sg42
g34
sg43
L0L
sa(dp480
g2
L0L
sg3
V@b6d37e39027e935332a96166fc90ca6aa0b6cdd77e3fcc8facd07ce3e2e78f65
p481
sg5
V\u71c3
p482
sg7
V/cgi-bin/mmwebwx-bin/webwxgeticon?seq=662825953&username=@b6d37e39027e935332a96166fc90ca6aa0b6cdd77e3fcc8facd07ce3e2e78f65&skey=@crypt_b1266bc9_04bf18fb8ff022a8b4e3c5d868291675
p483
sg9
L1L
sg10
L0L
sg11
(lp484
sg13
V\u738b\u9e4f\u98de
p485
sg15
L0L
sg16
L1L
sg17
V\u613f\u5386\u5c3d\u5343\u5e06\uff0c\u5f52\u6765\u4ecd\u5c11\u5e74\u3002
p486
sg19
L0L
sg20
L0L
sg21
VR
p487
sg23
Vran
p488
sg25
VWPF
p489
sg27
Vwangpengfei
p490
sg29
L0L
sg30
L0L
sg31
L0L
sg32
L33656869L
sg33
g34
sg35
g34
sg36
g34
sg37
L145L
sg38
L0L
sg39
g34
sg40
L0L
sg41
g34
sg42
g34
sg43
L0L
sa(dp491
g2
L0L
sg3
V@2a663c6e8a667589b19d728b5ddfc61e66ecc1c1818a1c7bd41b369d5a62afee
p492
sg5
Vzhou  feng
p493
sg7
V/cgi-bin/mmwebwx-bin/webwxgeticon?seq=662825797&username=@2a663c6e8a667589b19d728b5ddfc61e66ecc1c1818a1c7bd41b369d5a62afee&skey=@crypt_b1266bc9_04bf18fb8ff022a8b4e3c5d868291675
p494
sg9
L1L
sg10
L0L
sg11
(lp495
sg13
V\u5468\u5cf0
p496
sg15
L0L
sg16
L1L
sg17
g34
sg19
L0L
sg20
L0L
sg21
VZHOUFENG
p497
sg23
Vzhoufeng
p498
sg25
VZF
p499
sg27
Vzhoufeng
p500
sg29
L0L
sg30
L0L
sg31
L0L
sg32
L16879717L
sg33
V\u9655\u897f
p501
sg35
V\u897f\u5b89
p502
sg36
g34
sg37
L17L
sg38
L0L
sg39
g34
sg40
L0L
sg41
g34
sg42
g34
sg43
L0L
sa(dp503
g2
L0L
sg3
V@556c5b62d4b1a01c1da67973ba4c68b216e9144e394cf306cf97ad801d8d82a3
p504
sg5
V\u5947\u5947
p505
sg7
V/cgi-bin/mmwebwx-bin/webwxgeticon?seq=662824360&username=@556c5b62d4b1a01c1da67973ba4c68b216e9144e394cf306cf97ad801d8d82a3&skey=@crypt_b1266bc9_04bf18fb8ff022a8b4e3c5d868291675
p506
sg9
L1L
sg10
L0L
sg11
(lp507
sg13
V\u6881\u704f
p508
sg15
L0L
sg16
L1L
sg17
V\u51ac\u6709\u677f\u6817\uff0c\u590f\u6709\u8292\u679c\uff0c\u800c\u4f60\u56db\u5b63\u6709\u6211
p509
sg19
L0L
sg20
L0L
sg21
VQQ
p510
sg23
Vqiqi
p511
sg25
VLH
p512
sg27
Vlianghao
p513
sg29
L0L
sg30
L0L
sg31
L0L
sg32
L102501L
sg33
V\u5e7f\u897f
p514
sg35
V\u68a7\u5dde
p515
sg36
g34
sg37
L1L
sg38
L0L
sg39
g34
sg40
L0L
sg41
g34
sg42
g34
sg43
L0L
sa(dp516
g2
L0L
sg3
V@ab8373b35a0fa0f62258ae7ac38104f08a51ec94c9e8b7ecfa2db20e4c4c2815
p517
sg5
V\u540d\u5b57\u4e0d\u8981\u60f3
p518
sg7
V/cgi-bin/mmwebwx-bin/webwxgeticon?seq=621665473&username=@ab8373b35a0fa0f62258ae7ac38104f08a51ec94c9e8b7ecfa2db20e4c4c2815&skey=@crypt_b1266bc9_04bf18fb8ff022a8b4e3c5d868291675
p519
sg9
L1L
sg10
L0L
sg11
(lp520
sg13
V\u6d69\u54e5
p521
sg15
L0L
sg16
L1L
sg17
g34
sg19
L0L
sg20
L0L
sg21
VMZBYX
p522
sg23
Vmingzibuyaoxiang
p523
sg25
VHG
p524
sg27
Vhaoge
p525
sg29
L0L
sg30
L0L
sg31
L0L
sg32
L33787943L
sg33
V\u6c5f\u82cf
p526
sg35
V\u82cf\u5dde
p527
sg36
g34
sg37
L16L
sg38
L0L
sg39
g34
sg40
L0L
sg41
g34
sg42
g34
sg43
L0L
sa(dp528
g2
L0L
sg3
V@a04b1cf5e45c69cf442ebdc56ccbfd1cbb9574a81d70cdc398807d785ae5c0f4
p529
sg5
Vkiterunner
p530
sg7
V/cgi-bin/mmwebwx-bin/webwxgeticon?seq=662792445&username=@a04b1cf5e45c69cf442ebdc56ccbfd1cbb9574a81d70cdc398807d785ae5c0f4&skey=@crypt_b1266bc9_04bf18fb8ff022a8b4e3c5d868291675
p531
sg9
L1L
sg10
L0L
sg11
(lp532
sg13
V\u5c39\u6d0b\u6d0b
p533
sg15
L0L
sg16
L1L
sg17
V\u6ca1\u6709\u672a\u6765\u7684\u672a\u6765\u4e0d\u662f\u6211\u60f3\u8981\u7684\u672a\u6765\u3002
p534
sg19
L0L
sg20
L0L
sg21
VKITERUNNER
p535
sg23
Vkiterunner
p536
sg25
VYYY
p537
sg27
Vyinyangyang
p538
sg29
L0L
sg30
L0L
sg31
L0L
sg32
L102501L
sg33
V\u6e56\u5317
p539
sg35
V\u5b5d\u611f
p540
sg36
g34
sg37
L1L
sg38
L0L
sg39
g34
sg40
L0L
sg41
g34
sg42
g34
sg43
L0L
sa(dp541
g2
L0L
sg3
V@49c7f5dda472e46329bf5aaa1a199c1fc94e6005a48dfe0c02e7555887c09b45
p542
sg5
V\u6a31\u6843\u5c0f\u73a9\u7eb8
p543
sg7
V/cgi-bin/mmwebwx-bin/webwxgeticon?seq=662811686&username=@49c7f5dda472e46329bf5aaa1a199c1fc94e6005a48dfe0c02e7555887c09b45&skey=@crypt_b1266bc9_04bf18fb8ff022a8b4e3c5d868291675
p544
sg9
L1L
sg10
L0L
sg11
(lp545
sg13
V\u6a35\u5803
p546
sg15
L0L
sg16
L2L
sg17
V\u613f\u4f60\u7279\u522b\u7f8e\u4e3d \u7279\u522b\u5e73\u9759 \u7279\u522b\u51f6\u72e0 \u4e5f\u7279\u522b\u6e29\u67d4
p547
sg19
L0L
sg20
L0L
sg21
VYTXWZ
p548
sg23
Vyingtaoxiaowanzhi
p549
sg25
VQK
p550
sg27
Vqiaokun
p551
sg29
L0L
sg30
L0L
sg31
L0L
sg32
L102501L
sg33
V\u9655\u897f
p552
sg35
V\u897f\u5b89
p553
sg36
g34
sg37
L1L
sg38
L0L
sg39
g34
sg40
L0L
sg41
g34
sg42
g34
sg43
L0L
sa(dp554
g2
L0L
sg3
V@2509bbdf77e45404e1b5b9418df6641a5da8a33261a1670c62d701a354bda40f
p555
sg5
V\u9ec4\u5f00\u8881
p556
sg7
V/cgi-bin/mmwebwx-bin/webwxgeticon?seq=662813380&username=@2509bbdf77e45404e1b5b9418df6641a5da8a33261a1670c62d701a354bda40f&skey=@crypt_b1266bc9_04bf18fb8ff022a8b4e3c5d868291675
p557
sg9
L1L
sg10
L0L
sg11
(lp558
sg13
V\u9ec4\u5f00\u8881
p559
sg15
L0L
sg16
L1L
sg17
V\u9ec4\u5f00\u8881
p560
sg19
L0L
sg20
L0L
sg21
VHKY
p561
sg23
Vhuangkaiyuan
p562
sg25
VHKY
p563
sg27
Vhuangkaiyuan
p564
sg29
L0L
sg30
L0L
sg31
L0L
sg32
L135205L
sg33
V\u6e56\u5317
p565
sg35
V\u5b5d\u611f
p566
sg36
g34
sg37
L0L
sg38
L0L
sg39
g34
sg40
L0L
sg41
g34
sg42
g34
sg43
L0L
sa(dp567
g2
L0L
sg3
V@56261ba0e288a73e31b09efbe878e656b8866e71c414d22b44a8cf14e4f2b0c8
p568
sg5
V\u5468\u6613\u70e6
p569
sg7
V/cgi-bin/mmwebwx-bin/webwxgeticon?seq=662821294&username=@56261ba0e288a73e31b09efbe878e656b8866e71c414d22b44a8cf14e4f2b0c8&skey=@crypt_b1266bc9_04bf18fb8ff022a8b4e3c5d868291675
p570
sg9
L1L
sg10
L0L
sg11
(lp571
sg13
V\u5468\u4e00\u51e1
p572
sg15
L0L
sg16
L1L
sg17
V\u53ea\u6709\u81ea\u5df1\uff0c\u80fd\u5c06\u81ea\u5df1\u6551\u8d4e\u3002
p573
sg19
L0L
sg20
L0L
sg21
VZYF
p574
sg23
Vzhouyifan
p575
sg25
VZYF
p576
sg27
Vzhouyifan
p577
sg29
L0L
sg30
L0L
sg31
L0L
sg32
L99325L
sg33
g34
sg35
g34
sg36
g34
sg37
L17L
sg38
L0L
sg39
g34
sg40
L0L
sg41
g34
sg42
g34
sg43
L0L
sa(dp578
g2
L0L
sg3
V@dfc72d6449c9d36613908dc7f669316c
p579
sg5
V\u53ef\u7231\u53ef\u4eb2
p580
sg7
V/cgi-bin/mmwebwx-bin/webwxgeticon?seq=662809151&username=@dfc72d6449c9d36613908dc7f669316c&skey=@crypt_b1266bc9_04bf18fb8ff022a8b4e3c5d868291675
p581
sg9
L65537L
sg10
L0L
sg11
(lp582
sg13
V\u8d1d\u8d1d\u5ac2\u5b50
p583
sg15
L0L
sg16
L2L
sg17
V\u6fb3\u6d32\u4ee3\u8d2d\uff0c\u5404\u79cd\u4fdd\u5065\u54c1\uff0c\u5976\u7c89\uff0c\u62a4\u80a4
p584
sg19
L0L
sg20
L0L
sg21
VKAKQ
p585
sg23
Vkeaikeqin
p586
sg25
VBBSZ
p587
sg27
Vbeibeisaozi
p588
sg29
L0L
sg30
L0L
sg31
L0L
sg32
L2147488959L
sg33
V\u6e56\u5317
p589
sg35
V\u5b5d\u611f
p590
sg36
g34
sg37
L17L
sg38
L0L
sg39
g34
sg40
L0L
sg41
VAYQ
p591
sg42
g34
sg43
L0L
sa(dp592
g2
L0L
sg3
V@a6381cfa6614de1b486f8ce15dccc03ab9beb743e49d12576524011088f6901e
p593
sg5
V\u5bf9\u6b66
p594
sg7
V/cgi-bin/mmwebwx-bin/webwxgeticon?seq=662767947&username=@a6381cfa6614de1b486f8ce15dccc03ab9beb743e49d12576524011088f6901e&skey=@crypt_b1266bc9_04bf18fb8ff022a8b4e3c5d868291675
p595
sg9
L1L
sg10
L0L
sg11
(lp596
sg13
V\u738b\u5bf9\u6b66
p597
sg15
L0L
sg16
L1L
sg17
g34
sg19
L0L
sg20
L0L
sg21
VDW
p598
sg23
Vduiwu
p599
sg25
VWDW
p600
sg27
Vwangduiwu
p601
sg29
L0L
sg30
L0L
sg31
L0L
sg32
L4197L
sg33
V\u5e7f\u897f
p602
sg35
V\u6842\u6797
p603
sg36
g34
sg37
L1L
sg38
L0L
sg39
g34
sg40
L0L
sg41
g34
sg42
g34
sg43
L0L
sa(dp604
g2
L0L
sg3
V@0e65dece3c4fdba0c5ea429ea28904f74b24798c6f88c357f0293f29314775e5
p605
sg5
VA\u8d85\u8d8a\uff0c\u6211\u4eec\u8bf4\u597d\u7684\uff0c\uff0c\uff0c\uff0c
p606
sg7
V/cgi-bin/mmwebwx-bin/webwxgeticon?seq=662830683&username=@0e65dece3c4fdba0c5ea429ea28904f74b24798c6f88c357f0293f29314775e5&skey=@crypt_b1266bc9_04bf18fb8ff022a8b4e3c5d868291675
p607
sg9
L65793L
sg10
L0L
sg11
(lp608
sg13
V\u6881\u6b23
p609
sg15
L0L
sg16
L2L
sg17
V\u8d85\u8d8a\u5065\u8eab\u627e\u6211\uff0c\u76f4\u63a5\u7ed9\u5230\u6700\u4f4e\u4ef7\u4f4d
p610
sg19
L0L
sg20
L0L
sg21
VACYWMSHD
p611
sg23
VAchaoyuewomenshuohaode
p612
sg25
VLX
p613
sg27
Vliangxin
p614
sg29
L0L
sg30
L0L
sg31
L0L
sg32
L104509L
sg33
V\u9655\u897f
p615
sg35
V\u6e2d\u5357
p616
sg36
g34
sg37
L17L
sg38
L0L
sg39
g34
sg40
L0L
sg41
g34
sg42
g34
sg43
L0L
sa(dp617
g2
L0L
sg3
V@a424de54f486d81479f9aa6c4bc89297e9d467a7b47712bab6a0f209193c937d
p618
sg5
VYi tiao Xia
p619
sg7
V/cgi-bin/mmwebwx-bin/webwxgeticon?seq=662848430&username=@a424de54f486d81479f9aa6c4bc89297e9d467a7b47712bab6a0f209193c937d&skey=@crypt_b1266bc9_04bf18fb8ff022a8b4e3c5d868291675
p620
sg9
L1L
sg10
L0L
sg11
(lp621
sg13
V\u6bb7\u9510
p622
sg15
L0L
sg16
L1L
sg17
V\u94a2\u94c1\u9505\u542b\u7740\u6cea\u558a\u4fee\u74e2\u9505
p623
sg19
L0L
sg20
L0L
sg21
VYITIAOXIA
p624
sg23
VYitiaoXia
p625
sg25
VYR
p626
sg27
Vyinrui
p627
sg29
L0L
sg30
L0L
sg31
L0L
sg32
L102501L
sg33
V\u9655\u897f
p628
sg35
V\u6c49\u4e2d
p629
sg36
g34
sg37
L17L
sg38
L0L
sg39
g34
sg40
L0L
sg41
g34
sg42
g34
sg43
L0L
sa(dp630
g2
L0L
sg3
V@88a80cd13c9385e367721d7108c5da71eb5840dee4119e27bcec230c139f2d6e
p631
sg5
V\u4f73\u5f3a
p632
sg7
V/cgi-bin/mmwebwx-bin/webwxgeticon?seq=650568227&username=@88a80cd13c9385e367721d7108c5da71eb5840dee4119e27bcec230c139f2d6e&skey=@crypt_b1266bc9_04bf18fb8ff022a8b4e3c5d868291675
p633
sg9
L1L
sg10
L0L
sg11
(lp634
sg13
g34
sg15
L0L
sg16
L0L
sg17
g34
sg19
L0L
sg20
L0L
sg21
VJQ
p635
sg23
Vjiaqiang
p636
sg25
g34
sg27
g34
sg29
L0L
sg30
L0L
sg31
L0L
sg32
L4133L
sg33
g34
sg35
g34
sg36
g34
sg37
L1L
sg38
L0L
sg39
g34
sg40
L0L
sg41
g34
sg42
g34
sg43
L0L
sa(dp637
g2
L0L
sg3
V@3e39712110a6c3005af07f24e8436bef45664f1c8f07b188ae5d3e966a3250db
p638
sg5
V\u53ca\u65f6\u6b62\u635f
p639
sg7
V/cgi-bin/mmwebwx-bin/webwxgeticon?seq=662846618&username=@3e39712110a6c3005af07f24e8436bef45664f1c8f07b188ae5d3e966a3250db&skey=@crypt_b1266bc9_04bf18fb8ff022a8b4e3c5d868291675
p640
sg9
L1L
sg10
L0L
sg11
(lp641
sg13
V\u9a6c\u8c6b\u5b9b
p642
sg15
L0L
sg16
L2L
sg17
V\u4e00\u5207\u90fd\u662f\u6700\u597d\u5b89\u6392
p643
sg19
L0L
sg20
L0L
sg21
VJSZS
p644
sg23
Vjishizhisun
p645
sg25
VMYW
p646
sg27
Vmayuwan
p647
sg29
L0L
sg30
L0L
sg31
L0L
sg32
L233509L
sg33
V\u4e91\u5357
p648
sg35
V\u6606\u660e
p649
sg36
g34
sg37
L17L
sg38
L0L
sg39
g34
sg40
L0L
sg41
g34
sg42
g34
sg43
L0L
sa(dp650
g2
L0L
sg3
V@fd22d403d4c676e787fd8e7e2b52d225da8364cbdb6ef19eba21020f08522b3e
p651
sg5
V\u4e0d\u4e00\u6837\u7684\u70df\u706b<span class="emoji emoji1f525"></span>
p652
sg7
V/cgi-bin/mmwebwx-bin/webwxgeticon?seq=650575270&username=@fd22d403d4c676e787fd8e7e2b52d225da8364cbdb6ef19eba21020f08522b3e&skey=@crypt_b1266bc9_04bf18fb8ff022a8b4e3c5d868291675
p653
sg9
L1L
sg10
L0L
sg11
(lp654
sg13
V\u8881\u5fd7\u9e4f
p655
sg15
L0L
sg16
L1L
sg17
V\u539f\u6765\u662f\u4f60
p656
sg19
L0L
sg20
L0L
sg21
VBYYDYHSPANCLASSEMOJIEMOJI1F525SPAN
p657
sg23
Vbuyiyangdeyanhuospanclassemojiemoji1f525span
p658
sg25
VYZP
p659
sg27
Vyuanzhipeng
p660
sg29
L0L
sg30
L0L
sg31
L0L
sg32
L17010789L
sg33
V\u6e56\u5317
p661
sg35
V\u5b5d\u611f
p662
sg36
g34
sg37
L1L
sg38
L0L
sg39
g34
sg40
L0L
sg41
g34
sg42
g34
sg43
L0L
sa(dp663
g2
L0L
sg3
V@7cdbd1716b2349c4c41eb124df54f46c23b2e9f54952207a87fb368ef2f7c178
p664
sg5
V\u8d75\u667a\u660e
p665
sg7
V/cgi-bin/mmwebwx-bin/webwxgeticon?seq=662776651&username=@7cdbd1716b2349c4c41eb124df54f46c23b2e9f54952207a87fb368ef2f7c178&skey=@crypt_b1266bc9_04bf18fb8ff022a8b4e3c5d868291675
p666
sg9
L1L
sg10
L0L
sg11
(lp667
sg13
V\u8d75\u667a\u660e
p668
sg15
L0L
sg16
L1L
sg17
VAll is well
p669
sg19
L0L
sg20
L0L
sg21
VZZM
p670
sg23
Vzhaozhiming
p671
sg25
VZZM
p672
sg27
Vzhaozhiming
p673
sg29
L0L
sg30
L0L
sg31
L0L
sg32
L104485L
sg33
V\u6cb3\u5357
p674
sg35
V\u65b0\u4e61
p675
sg36
g34
sg37
L17L
sg38
L0L
sg39
g34
sg40
L0L
sg41
g34
sg42
g34
sg43
L0L
sa(dp676
g2
L0L
sg3
V@38dfecefa399e543340455b6030982d86bb973be3e28fa71aeba0b74640e04d9
p677
sg5
Vblue\u77b3
p678
sg7
V/cgi-bin/mmwebwx-bin/webwxgeticon?seq=662805793&username=@38dfecefa399e543340455b6030982d86bb973be3e28fa71aeba0b74640e04d9&skey=@crypt_b1266bc9_04bf18fb8ff022a8b4e3c5d868291675
p679
sg9
L1L
sg10
L0L
sg11
(lp680
sg13
V\u4f59\u73b2
p681
sg15
L0L
sg16
L2L
sg17
V\u6bcf\u68f5\u5411\u65e5\u8475<span class="emoji emoji1f33b"></span>\u7684\u5fc3\u91cc\u90fd\u4f4f\u7740\u592a\u9633\U0001f31e
p682
sg19
L0L
sg20
L0L
sg21
VBLUET
p683
sg23
Vbluetong
p684
sg25
VYL
p685
sg27
Vyuling
p686
sg29
L0L
sg30
L0L
sg31
L0L
sg32
L105085L
sg33
g34
sg35
g34
sg36
g34
sg37
L1L
sg38
L0L
sg39
g34
sg40
L0L
sg41
g34
sg42
g34
sg43
L0L
sa(dp687
g2
L0L
sg3
V@903a159edec884a5ec6a9fd42ba7e1f8999e7359af91e27347ed2fc00c862a11
p688
sg5
VKing
p689
sg7
V/cgi-bin/mmwebwx-bin/webwxgeticon?seq=662821204&username=@903a159edec884a5ec6a9fd42ba7e1f8999e7359af91e27347ed2fc00c862a11&skey=@crypt_b1266bc9_04bf18fb8ff022a8b4e3c5d868291675
p690
sg9
L1L
sg10
L0L
sg11
(lp691
sg13
V\u738b\u51b0
p692
sg15
L0L
sg16
L1L
sg17
V\u7ec8\u4e0d\u4f3c\uff0c\u5c11\u5e74\u6e38\u3002
p693
sg19
L0L
sg20
L0L
sg21
VKING
p694
sg23
VKing
p695
sg25
VWB
p696
sg27
Vwangbing
p697
sg29
L0L
sg30
L0L
sg31
L0L
sg32
L104549L
sg33
VSouth Ari Atoll
p698
sg35
g34
sg36
g34
sg37
L1L
sg38
L0L
sg39
g34
sg40
L0L
sg41
g34
sg42
g34
sg43
L0L
sa(dp699
g2
L0L
sg3
V@76754a4685dfd9cb13250fddecee39ee8a0402f16fa43b064a825a8d6155cd56
p700
sg5
V\u7ea2\u5c18
p701
sg7
V/cgi-bin/mmwebwx-bin/webwxgeticon?seq=662816018&username=@76754a4685dfd9cb13250fddecee39ee8a0402f16fa43b064a825a8d6155cd56&skey=@crypt_b1266bc9_04bf18fb8ff022a8b4e3c5d868291675
p702
sg9
L1L
sg10
L0L
sg11
(lp703
sg13
V\u4e2d\u8f89\u53d4
p704
sg15
L0L
sg16
L1L
sg17
g34
sg19
L0L
sg20
L0L
sg21
VHC
p705
sg23
Vhongchen
p706
sg25
VZHS
p707
sg27
Vzhonghuishu
p708
sg29
L0L
sg30
L0L
sg31
L0L
sg32
L102501L
sg33
V\u6e56\u5317
p709
sg35
V\u5b5d\u611f
p710
sg36
g34
sg37
L1L
sg38
L0L
sg39
g34
sg40
L0L
sg41
g34
sg42
g34
sg43
L0L
sa(dp711
g2
L0L
sg3
V@b1f3b722884ddc912e30f5973d08ed2aaf5f386191d82b06e062ef66b778b898
p712
sg5
V\u4e91\u68a6\u6cfd
p713
sg7
V/cgi-bin/mmwebwx-bin/webwxgeticon?seq=662792568&username=@b1f3b722884ddc912e30f5973d08ed2aaf5f386191d82b06e062ef66b778b898&skey=@crypt_b1266bc9_04bf18fb8ff022a8b4e3c5d868291675
p714
sg9
L1L
sg10
L0L
sg11
(lp715
sg13
V\u8205\u8205
p716
sg15
L0L
sg16
L1L
sg17
V\u51fa\u95e8\u8981\u7528\u8f66\u7684\u670b\u53cb\u8bf7\u8054\u7cfb\u6211\uff0c\u4e13\u8f66\u63a5\u9001\uff0c\u7535\u8bdd13871351294
p717
sg19
L0L
sg20
L0L
sg21
VYMZ
p718
sg23
Vyunmengze
p719
sg25
VJJ
p720
sg27
Vjiujiu
p721
sg29
L0L
sg30
L0L
sg31
L0L
sg32
L4133L
sg33
V\u6e56\u5317
p722
sg35
V\u6b66\u6c49
p723
sg36
g34
sg37
L1L
sg38
L0L
sg39
g34
sg40
L0L
sg41
g34
sg42
g34
sg43
L0L
sa(dp724
g2
L0L
sg3
V@922232e22df4006fff67b3704a77195fecb1d8d99663b4cc371e82dc58bd272e
p725
sg5
Vyearlz
p726
sg7
V/cgi-bin/mmwebwx-bin/webwxgeticon?seq=662824434&username=@922232e22df4006fff67b3704a77195fecb1d8d99663b4cc371e82dc58bd272e&skey=@crypt_b1266bc9_04bf18fb8ff022a8b4e3c5d868291675
p727
sg9
L1L
sg10
L0L
sg11
(lp728
sg13
V\u674e\u6cbb
p729
sg15
L0L
sg16
L1L
sg17
g34
sg19
L0L
sg20
L0L
sg21
VYEARLZ
p730
sg23
Vyearlz
p731
sg25
VLZ
p732
sg27
Vlizhi
p733
sg29
L0L
sg30
L0L
sg31
L0L
sg32
L102501L
sg33
V\u9655\u897f
p734
sg35
V\u897f\u5b89
p735
sg36
g34
sg37
L17L
sg38
L0L
sg39
g34
sg40
L0L
sg41
g34
sg42
g34
sg43
L0L
sa(dp736
g2
L0L
sg3
V@c784c4708585e438205e6862eddacda7d5c01f953a0bb4c4ff723468d1fc0b04
p737
sg5
V\u6c88\u96c4\u6770
p738
sg7
V/cgi-bin/mmwebwx-bin/webwxgeticon?seq=662832336&username=@c784c4708585e438205e6862eddacda7d5c01f953a0bb4c4ff723468d1fc0b04&skey=@crypt_b1266bc9_04bf18fb8ff022a8b4e3c5d868291675
p739
sg9
L1L
sg10
L0L
sg11
(lp740
sg13
g34
sg15
L0L
sg16
L1L
sg17
V\u7231coding\uff0c\u7231python\uff0c\u7231machine deep-learning\u3002
p741
sg19
L0L
sg20
L0L
sg21
VSXJ
p742
sg23
Vshenxiongjie
p743
sg25
g34
sg27
g34
sg29
L0L
sg30
L0L
sg31
L0L
sg32
L104549L
sg33
V\u9655\u897f
p744
sg35
V\u897f\u5b89
p745
sg36
g34
sg37
L17L
sg38
L0L
sg39
g34
sg40
L0L
sg41
g34
sg42
g34
sg43
L0L
sa(dp746
g2
L0L
sg3
V@751ed1ebb9fdda05ed467e15cc5d87c2514c61b9837ce2a1413d179e6a39656d
p747
sg5
V\u9ec4\u5f00\u8881
p748
sg7
V/cgi-bin/mmwebwx-bin/webwxgeticon?seq=662765816&username=@751ed1ebb9fdda05ed467e15cc5d87c2514c61b9837ce2a1413d179e6a39656d&skey=@crypt_b1266bc9_04bf18fb8ff022a8b4e3c5d868291675
p749
sg9
L1L
sg10
L0L
sg11
(lp750
sg13
V\u9ec4\u5f00\u8881
p751
sg15
L0L
sg16
L1L
sg17
g34
sg19
L0L
sg20
L0L
sg21
VHKY
p752
sg23
Vhuangkaiyuan
p753
sg25
VHKY
p754
sg27
Vhuangkaiyuan
p755
sg29
L0L
sg30
L0L
sg31
L0L
sg32
L4133L
sg33
V\u6e56\u5317
p756
sg35
V\u6b66\u6c49
p757
sg36
g34
sg37
L0L
sg38
L0L
sg39
g34
sg40
L0L
sg41
g34
sg42
g34
sg43
L0L
sa(dp758
g2
L0L
sg3
V@a4039e92e91da5709faf5bb92d874b0f588261d5912bdec15da8e58a000da3a8
p759
sg5
V\u610f\u5916\u7684\u60ca\u559c
p760
sg7
V/cgi-bin/mmwebwx-bin/webwxgeticon?seq=662826053&username=@a4039e92e91da5709faf5bb92d874b0f588261d5912bdec15da8e58a000da3a8&skey=@crypt_b1266bc9_04bf18fb8ff022a8b4e3c5d868291675
p761
sg9
L1L
sg10
L0L
sg11
(lp762
sg13
V\u79e6\u5f6c\u8427
p763
sg15
L0L
sg16
L1L
sg17
V2017\uff0c\u65c5\u6e38
p764
sg19
L0L
sg20
L0L
sg21
VYWDJX
p765
sg23
Vyiwaidejingxi
p766
sg25
VQBX
p767
sg27
Vqinbinxiao
p768
sg29
L0L
sg30
L0L
sg31
L0L
sg32
L104637L
sg33
V\u5c71\u897f
p769
sg35
V\u8fd0\u57ce
p770
sg36
g34
sg37
L49L
sg38
L0L
sg39
g34
sg40
L0L
sg41
g34
sg42
g34
sg43
L0L
sa(dp771
g2
L0L
sg3
V@9566ada170d5526c8831aeb6479252bc86491dedafbc23665814d920101874e8
p772
sg5
V\u4f1a\u610f
p773
sg7
V/cgi-bin/mmwebwx-bin/webwxgeticon?seq=662787309&username=@9566ada170d5526c8831aeb6479252bc86491dedafbc23665814d920101874e8&skey=@crypt_b1266bc9_04bf18fb8ff022a8b4e3c5d868291675
p774
sg9
L1L
sg10
L0L
sg11
(lp775
sg13
V\u4e25\u5e7f\u5b87
p776
sg15
L0L
sg16
L1L
sg17
g34
sg19
L0L
sg20
L0L
sg21
VHY
p777
sg23
Vhuiyi
p778
sg25
VYGY
p779
sg27
Vyanguangyu
p780
sg29
L0L
sg30
L0L
sg31
L0L
sg32
L50333733L
sg33
V\u6e56\u5317
p781
sg35
V\u5b5d\u611f
p782
sg36
g34
sg37
L17L
sg38
L0L
sg39
g34
sg40
L0L
sg41
g34
sg42
g34
sg43
L0L
sa(dp783
g2
L0L
sg3
V@3a373a417921626f85b5f2673266d5847e2d4e570541979220cd85c627effb3d
p784
sg5
V\u52c7\u6562\u5f80\u524d\u8d70
p785
sg7
V/cgi-bin/mmwebwx-bin/webwxgeticon?seq=662814308&username=@3a373a417921626f85b5f2673266d5847e2d4e570541979220cd85c627effb3d&skey=@crypt_b1266bc9_04bf18fb8ff022a8b4e3c5d868291675
p786
sg9
L1L
sg10
L0L
sg11
(lp787
sg13
V\u5c0f\u59d1\u5988
p788
sg15
L0L
sg16
L2L
sg17
g34
sg19
L0L
sg20
L0L
sg21
VYGWQZ
p789
sg23
Vyongganwangqianzou
p790
sg25
VXGM
p791
sg27
Vxiaoguma
p792
sg29
L0L
sg30
L0L
sg31
L0L
sg32
L4101L
sg33
V\u6e56\u5317
p793
sg35
V\u6b66\u6c49
p794
sg36
g34
sg37
L1L
sg38
L0L
sg39
g34
sg40
L0L
sg41
g34
sg42
g34
sg43
L0L
sa(dp795
g2
L0L
sg3
V@47227341709ddd12af5a1b358f3e01944d0e776d2289422ce548bf499e66892f
p796
sg5
V\u6797\u6625\u7115
p797
sg7
V/cgi-bin/mmwebwx-bin/webwxgeticon?seq=662827033&username=@47227341709ddd12af5a1b358f3e01944d0e776d2289422ce548bf499e66892f&skey=@crypt_b1266bc9_04bf18fb8ff022a8b4e3c5d868291675
p798
sg9
L1L
sg10
L0L
sg11
(lp799
sg13
g34
sg15
L0L
sg16
L1L
sg17
V\u53e4\u4e4b\u7acb\u5927\u4e8b\u8005\uff0c\u975e\u72ec\u6709\u8d85\u4e16\u4e4b\u624d\uff0c\u4ea6\u5fc5\u6709\u575a\u5fcd\u4e0d\u62d4\u4e4b\u5fd7\u4e5f\uff01
p800
sg19
L0L
sg20
L0L
sg21
VLCH
p801
sg23
Vlinchunhuan
p802
sg25
g34
sg27
g34
sg29
L0L
sg30
L0L
sg31
L0L
sg32
L4135L
sg33
V\u798f\u5efa
p803
sg35
V\u6cc9\u5dde
p804
sg36
g34
sg37
L17L
sg38
L0L
sg39
g34
sg40
L0L
sg41
g34
sg42
g34
sg43
L0L
sa(dp805
g2
L0L
sg3
V@0b4b8cd3d58f2b44fbd41600a3add43bc71d0d2f30178cb9a31a6e600b843a69
p806
sg5
V\u97f3\u9619\u8bd7\u542c
p807
sg7
V/cgi-bin/mmwebwx-bin/webwxgeticon?seq=662848547&username=@0b4b8cd3d58f2b44fbd41600a3add43bc71d0d2f30178cb9a31a6e600b843a69&skey=@crypt_b1266bc9_04bf18fb8ff022a8b4e3c5d868291675
p808
sg9
L1L
sg10
L0L
sg11
(lp809
sg13
V\u962e\u4e16\u4fe1
p810
sg15
L0L
sg16
L1L
sg17
V\u4eba\u751f\uff0c\u7ecf\u5e38\u5237\u65b0\u81ea\u5df1\uff0c\u6254\u6389\u8fc7\u53bb\u7684\u5305\u88b1\uff0c\u4ee5\u91cd\u83b7\u65b0\u751f
p811
sg19
L0L
sg20
L0L
sg21
VYQST
p812
sg23
Vyinqueshiting
p813
sg25
VRSX
p814
sg27
Vruanshixin
p815
sg29
L0L
sg30
L0L
sg31
L0L
sg32
L36965L
sg33
V\u5e7f\u897f
p816
sg35
V\u6842\u6797
p817
sg36
g34
sg37
L17L
sg38
L0L
sg39
g34
sg40
L0L
sg41
g34
sg42
g34
sg43
L0L
sa(dp818
g2
L0L
sg3
V@fe9e2ef56661f5416f2ee449d72a7991
p819
sg5
V\u5f20\u4e39
p820
sg7
V/cgi-bin/mmwebwx-bin/webwxgeticon?seq=662844081&username=@fe9e2ef56661f5416f2ee449d72a7991&skey=@crypt_b1266bc9_04bf18fb8ff022a8b4e3c5d868291675
p821
sg9
L1L
sg10
L0L
sg11
(lp822
sg13
g34
sg15
L0L
sg16
L2L
sg17
g34
sg19
L0L
sg20
L0L
sg21
VZD
p823
sg23
Vzhangdan
p824
sg25
g34
sg27
g34
sg29
L0L
sg30
L0L
sg31
L0L
sg32
L17009447L
sg33
V\u9655\u897f
p825
sg35
V\u897f\u5b89
p826
sg36
g34
sg37
L49L
sg38
L0L
sg39
g34
sg40
L0L
sg41
Vqq5
p827
sg42
g34
sg43
L0L
sa(dp828
g2
L0L
sg3
V@f3a88784038503b1868518809662795019f571b19ae08f82ccb46c8197b31938
p829
sg5
V\u76db\u590f\u5149\u5e74
p830
sg7
V/cgi-bin/mmwebwx-bin/webwxgeticon?seq=662824003&username=@f3a88784038503b1868518809662795019f571b19ae08f82ccb46c8197b31938&skey=@crypt_b1266bc9_04bf18fb8ff022a8b4e3c5d868291675
p831
sg9
L1L
sg10
L0L
sg11
(lp832
sg13
V220\u5f90\u5149\u9896
p833
sg15
L0L
sg16
L1L
sg17
V\u4e00\u65a4\u7684\u85d5\uff0c\u534a\u65a4\u7684\u6d1e
p834
sg19
L0L
sg20
L0L
sg21
VSXGN
p835
sg23
Vshengxiaguangnian
p836
sg25
V220XGY
p837
sg27
V220xuguangying
p838
sg29
L0L
sg30
L0L
sg31
L0L
sg32
L33661029L
sg33
VAuckland
p839
sg35
g34
sg36
g34
sg37
L49L
sg38
L0L
sg39
g34
sg40
L0L
sg41
g34
sg42
g34
sg43
L0L
sa(dp840
g2
L0L
sg3
V@b188223340e2a82f8b5487c837eb3afc
p841
sg5
V\u8f69
p842
sg7
V/cgi-bin/mmwebwx-bin/webwxgeticon?seq=662846697&username=@b188223340e2a82f8b5487c837eb3afc&skey=@crypt_b1266bc9_04bf18fb8ff022a8b4e3c5d868291675
p843
sg9
L1L
sg10
L0L
sg11
(lp844
sg13
V\u5218\u96ea\u8f69
p845
sg15
L0L
sg16
L2L
sg17
VBoom Boom Boom
p846
sg19
L0L
sg20
L0L
sg21
VX
p847
sg23
Vxuan
p848
sg25
VLXX
p849
sg27
Vliuxuexuan
p850
sg29
L0L
sg30
L0L
sg31
L0L
sg32
L232039L
sg33
g34
sg35
g34
sg36
g34
sg37
L177L
sg38
L0L
sg39
g34
sg40
L0L
sg41
Va38
p851
sg42
g34
sg43
L0L
sa(dp852
g2
L0L
sg3
V@cb66398189a73db432003d72afc291fd7d58540e5312fe548d24784e435abc13
p853
sg5
VMr.Zh\u3001
p854
sg7
V/cgi-bin/mmwebwx-bin/webwxgeticon?seq=662826910&username=@cb66398189a73db432003d72afc291fd7d58540e5312fe548d24784e435abc13&skey=@crypt_b1266bc9_04bf18fb8ff022a8b4e3c5d868291675
p855
sg9
L1L
sg10
L0L
sg11
(lp856
sg13
g34
sg15
L0L
sg16
L1L
sg17
g34
sg19
L0L
sg20
L0L
sg21
VMRZH
p857
sg23
VMrZh
p858
sg25
g34
sg27
g34
sg29
L0L
sg30
L0L
sg31
L0L
sg32
L16842789L
sg33
V\u9655\u897f
p859
sg35
V\u897f\u5b89
p860
sg36
g34
sg37
L17L
sg38
L0L
sg39
g34
sg40
L0L
sg41
g34
sg42
g34
sg43
L0L
sa(dp861
g2
L0L
sg3
V@c16f438f2a94774fb542e47405e1accbe444753114ee4a544e59c9283336772d
p862
sg5
VBigrro
p863
sg7
V/cgi-bin/mmwebwx-bin/webwxgeticon?seq=662851479&username=@c16f438f2a94774fb542e47405e1accbe444753114ee4a544e59c9283336772d&skey=@crypt_b1266bc9_04bf18fb8ff022a8b4e3c5d868291675
p864
sg9
L1L
sg10
L0L
sg11
(lp865
sg13
V\u5f90\u5c0f\u8339
p866
sg15
L0L
sg16
L2L
sg17
V\u522b\u518d\u8fc7\u654f\u4e86\u597d\u5417\u3002
p867
sg19
L0L
sg20
L0L
sg21
VBIGRRO
p868
sg23
VBigrro
p869
sg25
VXXR
p870
sg27
Vxuxiaoru
p871
sg29
L0L
sg30
L0L
sg31
L0L
sg32
L200805L
sg33
VKerry
p872
sg35
g34
sg36
g34
sg37
L1L
sg38
L0L
sg39
g34
sg40
L0L
sg41
g34
sg42
g34
sg43
L0L
sa(dp873
g2
L0L
sg3
V@5a799f7fa63d6dfb55e792932c0455d9fdaca4ca1ed7d486b78c44eca6c2f823
p874
sg5
V\u9ad8\u6da6
p875
sg7
V/cgi-bin/mmwebwx-bin/webwxgeticon?seq=662840976&username=@5a799f7fa63d6dfb55e792932c0455d9fdaca4ca1ed7d486b78c44eca6c2f823&skey=@crypt_b1266bc9_04bf18fb8ff022a8b4e3c5d868291675
p876
sg9
L1L
sg10
L0L
sg11
(lp877
sg13
V\u9ad8\u6da6
p878
sg15
L0L
sg16
L2L
sg17
VThere is no lemon so sour
p879
sg19
L0L
sg20
L0L
sg21
VGR
p880
sg23
Vgaorun
p881
sg25
VGR
p882
sg27
Vgaorun
p883
sg29
L0L
sg30
L0L
sg31
L0L
sg32
L4197L
sg33
V\u65b0\u7586
p884
sg35
V\u4e4c\u9c81\u6728\u9f50
p885
sg36
g34
sg37
L17L
sg38
L0L
sg39
g34
sg40
L0L
sg41
g34
sg42
g34
sg43
L0L
sa(dp886
g2
L0L
sg3
V@d82842bf389ce0aa2b2b9a7fd59270004f282ab26ffca8009e2c10cc42db9a19
p887
sg5
V\u5c81\u6708\u6d41\u661f
p888
sg7
V/cgi-bin/mmwebwx-bin/webwxgeticon?seq=662846599&username=@d82842bf389ce0aa2b2b9a7fd59270004f282ab26ffca8009e2c10cc42db9a19&skey=@crypt_b1266bc9_04bf18fb8ff022a8b4e3c5d868291675
p889
sg9
L3L
sg10
L0L
sg11
(lp890
sg13
V\u5218\u6c5f
p891
sg15
L0L
sg16
L1L
sg17
V\u66ae\u8272\u5c3d\u000a\u000a\u000a\u000a\u000a\u000a\u000a\u000a\u000a\u000a\u000a\u000a\u000a\u4eba\u96be\u7559\uff0c\u591c\u672a\u592e\uff0c\u68a6\u5fae\u51c9\uff0c\u51ac\u610f\u67af\uff0c\u96ea\u4f9d\u7a00
p892
sg19
L0L
sg20
L0L
sg21
VSYLX
p893
sg23
Vsuiyueliuxing
p894
sg25
VLJ
p895
sg27
Vliujiang
p896
sg29
L0L
sg30
L0L
sg31
L0L
sg32
L102653L
sg33
V\u5c71\u897f
p897
sg35
V\u6714\u5dde
p898
sg36
g34
sg37
L1L
sg38
L0L
sg39
g34
sg40
L0L
sg41
g34
sg42
g34
sg43
L0L
sa(dp899
g2
L0L
sg3
V@4fe8a1208f1a95a3d4c88a5deed1c3e4cc912d2cdb72f384e65f630823027464
p900
sg5
VLYJ
p901
sg7
V/cgi-bin/mmwebwx-bin/webwxgeticon?seq=662835709&username=@4fe8a1208f1a95a3d4c88a5deed1c3e4cc912d2cdb72f384e65f630823027464&skey=@crypt_b1266bc9_04bf18fb8ff022a8b4e3c5d868291675
p902
sg9
L1L
sg10
L0L
sg11
(lp903
sg13
V\u5218\u8273\u519b
p904
sg15
L0L
sg16
L1L
sg17
V\u52a0\u6cb9\uff0c\u672a\u6765\uff01
p905
sg19
L0L
sg20
L0L
sg21
VLYJ
p906
sg23
VLYJ
p907
sg25
VLYJ
p908
sg27
Vliuyanjun
p909
sg29
L0L
sg30
L0L
sg31
L0L
sg32
L235877L
sg33
V\u5317\u4eac
p910
sg35
V\u987a\u4e49
p911
sg36
g34
sg37
L1L
sg38
L0L
sg39
g34
sg40
L0L
sg41
g34
sg42
g34
sg43
L0L
sa(dp912
g2
L0L
sg3
V@4ae0d6f05325a169de74eab78d8f8477ce5e5842f8c3f4e18328bea99c3c53e2
p913
sg5
VAnna \u674e\u6653\u8bb0
p914
sg7
V/cgi-bin/mmwebwx-bin/webwxgeticon?seq=662780197&username=@4ae0d6f05325a169de74eab78d8f8477ce5e5842f8c3f4e18328bea99c3c53e2&skey=@crypt_b1266bc9_04bf18fb8ff022a8b4e3c5d868291675
p915
sg9
L1L
sg10
L0L
sg11
(lp916
sg13
g34
sg15
L0L
sg16
L2L
sg17
V\u6625\u6653 \u62c2\u6653 
p917
sg19
L0L
sg20
L0L
sg21
VANNALXJ
p918
sg23
VAnnalixiaoji
p919
sg25
g34
sg27
g34
sg29
L0L
sg30
L0L
sg31
L0L
sg32
L16847077L
sg33
V\u5e7f\u897f
p920
sg35
V\u6842\u6797
p921
sg36
g34
sg37
L145L
sg38
L0L
sg39
g34
sg40
L0L
sg41
g34
sg42
g34
sg43
L0L
sa(dp922
g2
L0L
sg3
V@d7933018e7625d845f08609c179743f6932f5ed261d3fe859c1f11764f1d388a
p923
sg5
V\u4eba\u5f70
p924
sg7
V/cgi-bin/mmwebwx-bin/webwxgeticon?seq=662776969&username=@d7933018e7625d845f08609c179743f6932f5ed261d3fe859c1f11764f1d388a&skey=@crypt_b1266bc9_04bf18fb8ff022a8b4e3c5d868291675
p925
sg9
L1L
sg10
L0L
sg11
(lp926
sg13
V\u5218\u4eba\u5f70
p927
sg15
L0L
sg16
L1L
sg17
V\u6211\u4e0d\u7f3a\u670b\u53cb\uff0c\u66f4\u4e0d\u7f3a\u666e\u901a\u670b\u53cb\u3002
p928
sg19
L0L
sg20
L0L
sg21
VRZ
p929
sg23
Vrenzhang
p930
sg25
VLRZ
p931
sg27
Vliurenzhang
p932
sg29
L0L
sg30
L0L
sg31
L0L
sg32
L4133L
sg33
g34
sg35
g34
sg36
g34
sg37
L17L
sg38
L0L
sg39
g34
sg40
L0L
sg41
g34
sg42
g34
sg43
L0L
sa(dp933
g2
L0L
sg3
V@bc3f0111bb84739acdd08f668ad43db066ed9476c4c5f360033f465625adc648
p934
sg5
V\u77f3\u661f\u534e
p935
sg7
V/cgi-bin/mmwebwx-bin/webwxgeticon?seq=662852672&username=@bc3f0111bb84739acdd08f668ad43db066ed9476c4c5f360033f465625adc648&skey=@crypt_b1266bc9_04bf18fb8ff022a8b4e3c5d868291675
p936
sg9
L3L
sg10
L0L
sg11
(lp937
sg13
V\u77f3\u661f\u534e
p938
sg15
L0L
sg16
L0L
sg17
g34
sg19
L0L
sg20
L0L
sg21
VSXH
p939
sg23
Vshixinghua
p940
sg25
VSXH
p941
sg27
Vshixinghua
p942
sg29
L0L
sg30
L0L
sg31
L0L
sg32
L4133L
sg33
g34
sg35
g34
sg36
g34
sg37
L0L
sg38
L0L
sg39
g34
sg40
L0L
sg41
g34
sg42
g34
sg43
L0L
sa(dp943
g2
L0L
sg3
V@28b29e1132a250e38335c121c5d04075
p944
sg5
V\u9a6c\u680b
p945
sg7
V/cgi-bin/mmwebwx-bin/webwxgeticon?seq=662840977&username=@28b29e1132a250e38335c121c5d04075&skey=@crypt_b1266bc9_04bf18fb8ff022a8b4e3c5d868291675
p946
sg9
L1L
sg10
L0L
sg11
(lp947
sg13
g34
sg15
L0L
sg16
L1L
sg17
V\u6211\u5fc3\u4f9d\u65e7\uff0c\u7b49\u82b1\u5f00
p948
sg19
L0L
sg20
L0L
sg21
VMD
p949
sg23
Vmadong
p950
sg25
g34
sg27
g34
sg29
L0L
sg30
L0L
sg31
L0L
sg32
L20519L
sg33
V\u65b0\u7586
p951
sg35
V\u660c\u5409
p952
sg36
g34
sg37
L17L
sg38
L0L
sg39
g34
sg40
L0L
sg41
VMD1
p953
sg42
g34
sg43
L0L
sa(dp954
g2
L0L
sg3
V@d28ad1dd4b8e39aa8f68a9e232b647786efff8aefc09b9343c409608a0eb655f
p955
sg5
V\u5e73\u6de1\u4eba\u751f
p956
sg7
V/cgi-bin/mmwebwx-bin/webwxgeticon?seq=656477480&username=@d28ad1dd4b8e39aa8f68a9e232b647786efff8aefc09b9343c409608a0eb655f&skey=@crypt_b1266bc9_04bf18fb8ff022a8b4e3c5d868291675
p957
sg9
L1L
sg10
L0L
sg11
(lp958
sg13
V\u5927\u4f2f
p959
sg15
L0L
sg16
L1L
sg17
V\u8881\u8f89
p960
sg19
L0L
sg20
L0L
sg21
VPDRS
p961
sg23
Vpingdanrensheng
p962
sg25
VDB
p963
sg27
Vdabai
p964
sg29
L0L
sg30
L0L
sg31
L0L
sg32
L4133L
sg33
V\u6e56\u5317
p965
sg35
V\u5b5d\u611f
p966
sg36
g34
sg37
L1L
sg38
L0L
sg39
g34
sg40
L0L
sg41
g34
sg42
g34
sg43
L0L
sa(dp967
g2
L0L
sg3
V@0c9f29fe7ea2cf953f4f649a89db7560476cf8cef31487b49cca47aa56886285
p968
sg5
V\u6625\u534e
p969
sg7
V/cgi-bin/mmwebwx-bin/webwxgeticon?seq=662828259&username=@0c9f29fe7ea2cf953f4f649a89db7560476cf8cef31487b49cca47aa56886285&skey=@crypt_b1266bc9_04bf18fb8ff022a8b4e3c5d868291675
p970
sg9
L1L
sg10
L0L
sg11
(lp971
sg13
V\u59d1\u5988
p972
sg15
L0L
sg16
L2L
sg17
V\u76f8\u4fe1\u81ea\u5df1
p973
sg19
L0L
sg20
L0L
sg21
VCH
p974
sg23
Vchunhua
p975
sg25
VGM
p976
sg27
Vguma
p977
sg29
L0L
sg30
L0L
sg31
L0L
sg32
L102949L
sg33
V\u6e56\u5317
p978
sg35
V\u5b5d\u611f
p979
sg36
g34
sg37
L1L
sg38
L0L
sg39
g34
sg40
L0L
sg41
g34
sg42
g34
sg43
L0L
sa(dp980
g2
L0L
sg3
V@c1a0abb6440e21156a42ab27715c4d701e06cfa18c8b1ebc94e1da9e2144ee60
p981
sg5
V\u5929\u5357\u6d77\u5317
p982
sg7
V/cgi-bin/mmwebwx-bin/webwxgeticon?seq=662814818&username=@c1a0abb6440e21156a42ab27715c4d701e06cfa18c8b1ebc94e1da9e2144ee60&skey=@crypt_b1266bc9_04bf18fb8ff022a8b4e3c5d868291675
p983
sg9
L1L
sg10
L0L
sg11
(lp984
sg13
V\u9ad8\u7ef4\u4e2d
p985
sg15
L0L
sg16
L1L
sg17
g34
sg19
L0L
sg20
L0L
sg21
VTNHB
p986
sg23
Vtiannahaibei
p987
sg25
VGWZ
p988
sg27
Vgaoweizhong
p989
sg29
L0L
sg30
L0L
sg31
L0L
sg32
L102437L
sg33
V\u6cb3\u5317
p990
sg35
g34
sg36
g34
sg37
L1L
sg38
L0L
sg39
g34
sg40
L0L
sg41
g34
sg42
g34
sg43
L0L
sa(dp991
g2
L0L
sg3
V@e91a70387700a2f017bdf1a2af002009c959e3f3934e802c0d5296e968fbefb5
p992
sg5
V\u963f\u6811
p993
sg7
V/cgi-bin/mmwebwx-bin/webwxgeticon?seq=647808736&username=@e91a70387700a2f017bdf1a2af002009c959e3f3934e802c0d5296e968fbefb5&skey=@crypt_b1266bc9_04bf18fb8ff022a8b4e3c5d868291675
p994
sg9
L1L
sg10
L0L
sg11
(lp995
sg13
V\u949f\u6811\u793c
p996
sg15
L0L
sg16
L1L
sg17
V\u522b\u8bf4\u4ec0\u4e48\u98ce\u96e8\u6ca7\u6851\uff0c\u592a\u9633\u6bcf\u5929\u90fd\u662f\u65b0\u5a18\uff01
p997
sg19
L0L
sg20
L0L
sg21
VAS
p998
sg23
Vashu
p999
sg25
VZSL
p1000
sg27
Vzhongshuli
p1001
sg29
L0L
sg30
L0L
sg31
L0L
sg32
L103525L
sg33
VAddu Atoll
p1002
sg35
g34
sg36
g34
sg37
L17L
sg38
L0L
sg39
g34
sg40
L0L
sg41
g34
sg42
g34
sg43
L0L
sa(dp1003
g2
L0L
sg3
V@c74096c3714a17c8d841bb4b47f41b2034e3eb78776aa3d74b0cbcf37302f90f
p1004
sg5
V\u6b22
p1005
sg7
V/cgi-bin/mmwebwx-bin/webwxgeticon?seq=662793578&username=@c74096c3714a17c8d841bb4b47f41b2034e3eb78776aa3d74b0cbcf37302f90f&skey=@crypt_b1266bc9_04bf18fb8ff022a8b4e3c5d868291675
p1006
sg9
L1L
sg10
L0L
sg11
(lp1007
sg13
V\u97e6\u663e\u6b22
p1008
sg15
L0L
sg16
L1L
sg17
V\u653e\u4e0d\u4e0b\u7684\u4eba\uff0c\u56de\u4e0d\u53bb\u7684\u5bb6
p1009
sg19
L0L
sg20
L0L
sg21
VH
p1010
sg23
Vhuan
p1011
sg25
VWXH
p1012
sg27
Vweixianhuan
p1013
sg29
L0L
sg30
L0L
sg31
L0L
sg32
L33688509L
sg33
g34
sg35
g34
sg36
g34
sg37
L17L
sg38
L0L
sg39
g34
sg40
L0L
sg41
g34
sg42
g34
sg43
L0L
sa(dp1014
g2
L0L
sg3
V@6be1e4c2ab90848a83890cadc84c7cd9f82a7571725f3e326c0d81192b3e228b
p1015
sg5
VJack nihao
p1016
sg7
V/cgi-bin/mmwebwx-bin/webwxgeticon?seq=662853393&username=@6be1e4c2ab90848a83890cadc84c7cd9f82a7571725f3e326c0d81192b3e228b&skey=@crypt_b1266bc9_04bf18fb8ff022a8b4e3c5d868291675
p1017
sg9
L8193L
sg10
L0L
sg11
(lp1018
sg13
V\u7f57\u9e4f
p1019
sg15
L0L
sg16
L1L
sg17
V\u5b81\u9759\u4ee5\u81f4\u8fdc~
p1020
sg19
L0L
sg20
L0L
sg21
VJACKNIHAO
p1021
sg23
VJacknihao
p1022
sg25
VLP
p1023
sg27
Vluopeng
p1024
sg29
L0L
sg30
L0L
sg31
L0L
sg32
L4330277L
sg33
VOffaly
p1025
sg35
g34
sg36
g34
sg37
L17L
sg38
L0L
sg39
g34
sg40
L0L
sg41
g34
sg42
g34
sg43
L0L
sa(dp1026
g2
L0L
sg3
V@e5c666432c139d8749a6ce0a66930a39
p1027
sg5
V\u96e8\u6797
p1028
sg7
V/cgi-bin/mmwebwx-bin/webwxgeticon?seq=662839208&username=@e5c666432c139d8749a6ce0a66930a39&skey=@crypt_b1266bc9_04bf18fb8ff022a8b4e3c5d868291675
p1029
sg9
L3L
sg10
L0L
sg11
(lp1030
sg13
V\u7530\u96e8\u6797
p1031
sg15
L0L
sg16
L1L
sg17
g34
sg19
L0L
sg20
L0L
sg21
VYL
p1032
sg23
Vyulin
p1033
sg25
VTYL
p1034
sg27
Vtianyulin
p1035
sg29
L0L
sg30
L0L
sg31
L0L
sg32
L33591335L
sg33
V\u56db\u5ddd
p1036
sg35
V\u6210\u90fd
p1037
sg36
g34
sg37
L17L
sg38
L0L
sg39
g34
sg40
L0L
sg41
Vtyl
p1038
sg42
g34
sg43
L0L
sa(dp1039
g2
L0L
sg3
V@5469abae687f66bffb4c105a32826c3936742fe5317a94d072829dbb5cbb4d5c
p1040
sg5
V\u5446\u840c\u8304\u5b50
p1041
sg7
V/cgi-bin/mmwebwx-bin/webwxgeticon?seq=662814105&username=@5469abae687f66bffb4c105a32826c3936742fe5317a94d072829dbb5cbb4d5c&skey=@crypt_b1266bc9_04bf18fb8ff022a8b4e3c5d868291675
p1042
sg9
L1L
sg10
L0L
sg11
(lp1043
sg13
V\u5415\u5f69\u7433
p1044
sg15
L0L
sg16
L2L
sg17
V\u975e\u7537\u975e\u5973
p1045
sg19
L0L
sg20
L0L
sg21
VDMJZ
p1046
sg23
Vdaimengjiazi
p1047
sg25
VLCL
p1048
sg27
Vlvcailin
p1049
sg29
L0L
sg30
L0L
sg31
L0L
sg32
L4197L
sg33
V\u5e7f\u897f
p1050
sg35
V\u5317\u6d77
p1051
sg36
g34
sg37
L1L
sg38
L0L
sg39
g34
sg40
L0L
sg41
g34
sg42
g34
sg43
L0L
sa(dp1052
g2
L0L
sg3
V@3dbdba2a853a98c9782c46104bc725a3e1935b1a2fe89d35491aa8542d530006
p1053
sg5
V\u59ae\u89c9\u5f97\u5462
p1054
sg7
V/cgi-bin/mmwebwx-bin/webwxgeticon?seq=662855155&username=@3dbdba2a853a98c9782c46104bc725a3e1935b1a2fe89d35491aa8542d530006&skey=@crypt_b1266bc9_04bf18fb8ff022a8b4e3c5d868291675
p1055
sg9
L1L
sg10
L0L
sg11
(lp1056
sg13
V\u80e1\u68a6\u59ae
p1057
sg15
L0L
sg16
L2L
sg17
V\u5929\u6c14\u5f88\u597d\uff0c\u4f60\u89c9\u5f97\u5462\uff1f
p1058
sg19
L0L
sg20
L0L
sg21
VNJDN
p1059
sg23
Vnijiaodene
p1060
sg25
VHMN
p1061
sg27
Vhumengni
p1062
sg29
L0L
sg30
L0L
sg31
L0L
sg32
L1061L
sg33
V\u6c5f\u82cf
p1063
sg35
V\u9547\u6c5f
p1064
sg36
g34
sg37
L17L
sg38
L0L
sg39
g34
sg40
L0L
sg41
g34
sg42
g34
sg43
L0L
sa(dp1065
g2
L0L
sg3
V@c7a33c2d04f5ce3cc527b04b3b37a128b8867ee10f87479ebf33ef8a632ee694
p1066
sg5
VLongFly
p1067
sg7
V/cgi-bin/mmwebwx-bin/webwxgeticon?seq=662829774&username=@c7a33c2d04f5ce3cc527b04b3b37a128b8867ee10f87479ebf33ef8a632ee694&skey=@crypt_b1266bc9_04bf18fb8ff022a8b4e3c5d868291675
p1068
sg9
L3L
sg10
L0L
sg11
(lp1069
sg13
V\u6a0a\u9f99\u98de
p1070
sg15
L0L
sg16
L0L
sg17
g34
sg19
L0L
sg20
L0L
sg21
VLONGFLY
p1071
sg23
VLongFly
p1072
sg25
VFLF
p1073
sg27
Vfanlongfei
p1074
sg29
L0L
sg30
L0L
sg31
L0L
sg32
L135293L
sg33
g34
sg35
g34
sg36
g34
sg37
L17L
sg38
L0L
sg39
g34
sg40
L0L
sg41
g34
sg42
g34
sg43
L0L
sa(dp1075
g2
L0L
sg3
V@82becc44296366f7fd31794aaa585252f89c09f777329508c2f9121304f09184
p1076
sg5
V\u5a01\u5c0f\u5ec9
p1077
sg7
V/cgi-bin/mmwebwx-bin/webwxgeticon?seq=662855720&username=@82becc44296366f7fd31794aaa585252f89c09f777329508c2f9121304f09184&skey=@crypt_b1266bc9_04bf18fb8ff022a8b4e3c5d868291675
p1078
sg9
L1L
sg10
L0L
sg11
(lp1079
sg13
V\u6a0a\u5b8f\u6e0a\u5e08\u5144
p1080
sg15
L0L
sg16
L1L
sg17
g34
sg19
L0L
sg20
L0L
sg21
VWXL
p1081
sg23
Vweixiaolian
p1082
sg25
VFHYSX
p1083
sg27
Vfanhongyuanshixiong
p1084
sg29
L0L
sg30
L0L
sg31
L0L
sg32
L112741L
sg33
V\u9655\u897f
p1085
sg35
V\u897f\u5b89
p1086
sg36
g34
sg37
L17L
sg38
L0L
sg39
g34
sg40
L0L
sg41
g34
sg42
g34
sg43
L0L
sa(dp1087
g2
L0L
sg3
V@df8e02d642fe768b1034fbfed15d241e016d0279a6db79931a286d4bc25f51cc
p1088
sg5
VMolio
p1089
sg7
V/cgi-bin/mmwebwx-bin/webwxgeticon?seq=647814396&username=@df8e02d642fe768b1034fbfed15d241e016d0279a6db79931a286d4bc25f51cc&skey=@crypt_b1266bc9_04bf18fb8ff022a8b4e3c5d868291675
p1090
sg9
L1L
sg10
L0L
sg11
(lp1091
sg13
V\u83ab\u6d77\u6ee9
p1092
sg15
L0L
sg16
L0L
sg17
V\u8fdb\u4e00\u6b65\u6709\u8fdb\u4e00\u6b65\u7684\u6b22\u559c
p1093
sg19
L0L
sg20
L0L
sg21
VMOLIO
p1094
sg23
VMolio
p1095
sg25
VMHT
p1096
sg27
Vmohaitan
p1097
sg29
L0L
sg30
L0L
sg31
L0L
sg32
L4197L
sg33
g34
sg35
g34
sg36
g34
sg37
L1L
sg38
L0L
sg39
g34
sg40
L0L
sg41
g34
sg42
g34
sg43
L0L
sa(dp1098
g2
L0L
sg3
V@48506b000ed5199b1bf6fa849b5edde31fd552967ca21fc27913799242a5b77d
p1099
sg5
V<span class="emoji emoji1f451"></span>\u000a<span class="emoji emoji1f60b"></span>
p1100
sg7
V/cgi-bin/mmwebwx-bin/webwxgeticon?seq=662855893&username=@48506b000ed5199b1bf6fa849b5edde31fd552967ca21fc27913799242a5b77d&skey=@crypt_b1266bc9_04bf18fb8ff022a8b4e3c5d868291675
p1101
sg9
L1L
sg10
L0L
sg11
(lp1102
sg13
V\u949f\u660c\u4f59
p1103
sg15
L0L
sg16
L2L
sg17
g34
sg19
L0L
sg20
L0L
sg21
VSPANCLASSEMOJIEMOJI1F451SPANSPANCLASSEMOJIEMOJI1F60BSPAN
p1104
sg23
Vspanclassemojiemoji1f451spanspanclassemojiemoji1f60bspan
p1105
sg25
VZCY
p1106
sg27
Vzhongchangyu
p1107
sg29
L0L
sg30
L0L
sg31
L0L
sg32
L4197L
sg33
g34
sg35
g34
sg36
g34
sg37
L17L
sg38
L0L
sg39
g34
sg40
L0L
sg41
g34
sg42
g34
sg43
L0L
sa(dp1108
g2
L0L
sg3
V@cf3dc130cc79630f60a634d90361474b6025919cda4b1edf44997201fd3bd3fa
p1109
sg5
VBu.J
p1110
sg7
V/cgi-bin/mmwebwx-bin/webwxgeticon?seq=662852783&username=@cf3dc130cc79630f60a634d90361474b6025919cda4b1edf44997201fd3bd3fa&skey=@crypt_b1266bc9_04bf18fb8ff022a8b4e3c5d868291675
p1111
sg9
L1L
sg10
L0L
sg11
(lp1112
sg13
V\u8865\u5a67\u5e08\u59d0
p1113
sg15
L0L
sg16
L2L
sg17
VKing of my heart. 
p1114
sg19
L0L
sg20
L0L
sg21
VBUJ
p1115
sg23
VBuJ
p1116
sg25
VBJSJ
p1117
sg27
Vbujingshijie
p1118
sg29
L0L
sg30
L0L
sg31
L0L
sg32
L98337L
sg33
VFlorida
p1119
sg35
VMiami
p1120
sg36
g34
sg37
L17L
sg38
L0L
sg39
g34
sg40
L0L
sg41
g34
sg42
g34
sg43
L0L
sa(dp1121
g2
L0L
sg3
V@40bf0b5a3f68a3f939619c92ae95d9b74b0dfc3b3ab2181c64f1d65ab116c7c0
p1122
sg5
V\u5f69\u5152\u3002
p1123
sg7
V/cgi-bin/mmwebwx-bin/webwxgeticon?seq=662856083&username=@40bf0b5a3f68a3f939619c92ae95d9b74b0dfc3b3ab2181c64f1d65ab116c7c0&skey=@crypt_b1266bc9_04bf18fb8ff022a8b4e3c5d868291675
p1124
sg9
L3L
sg10
L0L
sg11
(lp1125
sg13
V\u97e6\u5f69\u4ec1
p1126
sg15
L0L
sg16
L2L
sg17
g34
sg19
L0L
sg20
L0L
sg21
VCE
p1127
sg23
Vcaier
p1128
sg25
VWCR
p1129
sg27
Vweicairen
p1130
sg29
L0L
sg30
L0L
sg31
L0L
sg32
L131109L
sg33
g34
sg35
g34
sg36
g34
sg37
L17L
sg38
L0L
sg39
g34
sg40
L0L
sg41
g34
sg42
g34
sg43
L0L
sa(dp1131
g2
L0L
sg3
V@355bbf8f5935229be5ac5e5d4b9faa233bd35cc5ae994b6fd754359a20df14f7
p1132
sg5
V\u4e14\u542c\u98ce\u541f
p1133
sg7
V/cgi-bin/mmwebwx-bin/webwxgeticon?seq=656475428&username=@355bbf8f5935229be5ac5e5d4b9faa233bd35cc5ae994b6fd754359a20df14f7&skey=@crypt_b1266bc9_04bf18fb8ff022a8b4e3c5d868291675
p1134
sg9
L8193L
sg10
L0L
sg11
(lp1135
sg13
V\u9093\u714c
p1136
sg15
L0L
sg16
L1L
sg17
V\u4eba\u751f\u5982\u68cb\uff0c\u843d\u5b50\u65e0\u6094
p1137
sg19
L0L
sg20
L0L
sg21
VJTFY
p1138
sg23
Vjutingfengyin
p1139
sg25
VDH
p1140
sg27
Vdenghuang
p1141
sg29
L0L
sg30
L0L
sg31
L0L
sg32
L16781437L
sg33
V\u5e7f\u4e1c
p1142
sg35
V\u5e7f\u5dde
p1143
sg36
g34
sg37
L17L
sg38
L0L
sg39
g34
sg40
L0L
sg41
g34
sg42
g34
sg43
L0L
sa(dp1144
g2
L0L
sg3
V@94a9fb102920f40f96f01384bed3daffee5d510e384c9b88f10eb78744b02fdc
p1145
sg5
V\u677e\u9f20
p1146
sg7
V/cgi-bin/mmwebwx-bin/webwxgeticon?seq=662857998&username=@94a9fb102920f40f96f01384bed3daffee5d510e384c9b88f10eb78744b02fdc&skey=@crypt_b1266bc9_04bf18fb8ff022a8b4e3c5d868291675
p1147
sg9
L1L
sg10
L0L
sg11
(lp1148
sg13
V\u6731\u677e\u9f84
p1149
sg15
L0L
sg16
L1L
sg17
Vmy dream is my life
p1150
sg19
L0L
sg20
L0L
sg21
VSS
p1151
sg23
Vsongshu
p1152
sg25
VZSL
p1153
sg27
Vzhusongling
p1154
sg29
L0L
sg30
L0L
sg31
L0L
sg32
L16781349L
sg33
V\u6cb3\u5357
p1155
sg35
V\u90d1\u5dde
p1156
sg36
g34
sg37
L17L
sg38
L0L
sg39
g34
sg40
L0L
sg41
g34
sg42
g34
sg43
L0L
sa(dp1157
g2
L0L
sg3
V@855c44d4de2f6e5284b94ccd5cdbd4f4
p1158
sg5
V\u9752\u94dc
p1159
sg7
V/cgi-bin/mmwebwx-bin/webwxgeticon?seq=662765979&username=@855c44d4de2f6e5284b94ccd5cdbd4f4&skey=@crypt_b1266bc9_04bf18fb8ff022a8b4e3c5d868291675
p1160
sg9
L257L
sg10
L0L
sg11
(lp1161
sg13
V\u674e\u7389\u5fe0
p1162
sg15
L0L
sg16
L1L
sg17
g34
sg19
L0L
sg20
L0L
sg21
VQT
p1163
sg23
Vqingtong
p1164
sg25
VLYZ
p1165
sg27
Vliyuzhong
p1166
sg29
L0L
sg30
L0L
sg31
L0L
sg32
L104165L
sg33
g34
sg35
g34
sg36
g34
sg37
L17L
sg38
L0L
sg39
g34
sg40
L0L
sg41
Vyuz
p1167
sg42
g34
sg43
L0L
sa(dp1168
g2
L0L
sg3
V@86d4bc78eed32606b87fe80758d3d052a208c84b5eac8a8cf752523116cfa017
p1169
sg5
VNow
p1170
sg7
V/cgi-bin/mmwebwx-bin/webwxgeticon?seq=662858370&username=@86d4bc78eed32606b87fe80758d3d052a208c84b5eac8a8cf752523116cfa017&skey=@crypt_b1266bc9_04bf18fb8ff022a8b4e3c5d868291675
p1171
sg9
L65537L
sg10
L0L
sg11
(lp1172
sg13
V\u6881\u5f69\u971e
p1173
sg15
L0L
sg16
L2L
sg17
Vbefore the down
p1174
sg19
L0L
sg20
L0L
sg21
VNOW
p1175
sg23
VNow
p1176
sg25
VLCX
p1177
sg27
Vliangcaixia
p1178
sg29
L0L
sg30
L0L
sg31
L0L
sg32
L24677L
sg33
V\u5e7f\u897f
p1179
sg35
V\u5357\u5b81
p1180
sg36
g34
sg37
L17L
sg38
L0L
sg39
g34
sg40
L0L
sg41
g34
sg42
g34
sg43
L0L
sa(dp1181
g2
L0L
sg3
V@a95a8f3ad8361387185b98d6fa25356c
p1182
sg5
VLiusch
p1183
sg7
V/cgi-bin/mmwebwx-bin/webwxgeticon?seq=662849048&username=@a95a8f3ad8361387185b98d6fa25356c&skey=@crypt_b1266bc9_04bf18fb8ff022a8b4e3c5d868291675
p1184
sg9
L3L
sg10
L0L
sg11
(lp1185
sg13
V\u5218\u601d\u6210
p1186
sg15
L0L
sg16
L1L
sg17
V\u667a\u8005\u5fc5\u6000\u4ec1
p1187
sg19
L0L
sg20
L0L
sg21
VLIUSCH
p1188
sg23
VLiusch
p1189
sg25
VLSC
p1190
sg27
Vliusaicheng
p1191
sg29
L0L
sg30
L0L
sg31
L0L
sg32
L33557183L
sg33
V\u9655\u897f
p1192
sg35
V\u897f\u5b89
p1193
sg36
g34
sg37
L17L
sg38
L0L
sg39
g34
sg40
L0L
sg41
Vliu
p1194
sg42
g34
sg43
L0L
sa(dp1195
g2
L0L
sg3
V@f5a977a11e877d1c56ef44db57ebb629a415f79a926b70e6b8d75471a1bc23e1
p1196
sg5
V\u5a1c\u5a1c
p1197
sg7
V/cgi-bin/mmwebwx-bin/webwxgeticon?seq=662858412&username=@f5a977a11e877d1c56ef44db57ebb629a415f79a926b70e6b8d75471a1bc23e1&skey=@crypt_b1266bc9_04bf18fb8ff022a8b4e3c5d868291675
p1198
sg9
L1L
sg10
L0L
sg11
(lp1199
sg13
V\u771f\u771f
p1200
sg15
L0L
sg16
L2L
sg17
g34
sg19
L0L
sg20
L0L
sg21
VNN
p1201
sg23
Vnana
p1202
sg25
VZZ
p1203
sg27
Vzhenzhen
p1204
sg29
L0L
sg30
L0L
sg31
L0L
sg32
L4133L
sg33
g34
sg35
g34
sg36
g34
sg37
L0L
sg38
L0L
sg39
g34
sg40
L0L
sg41
g34
sg42
g34
sg43
L0L
sa(dp1205
g2
L0L
sg3
V@67bc8180b30b4f2b9bc8c375756c1ebf333c74d7721587990da4a7d7d793d289
p1206
sg5
VNEW
p1207
sg7
V/cgi-bin/mmwebwx-bin/webwxgeticon?seq=662858426&username=@67bc8180b30b4f2b9bc8c375756c1ebf333c74d7721587990da4a7d7d793d289&skey=@crypt_b1266bc9_04bf18fb8ff022a8b4e3c5d868291675
p1208
sg9
L1L
sg10
L0L
sg11
(lp1209
sg13
V\u738b\u6cfd\u65b0
p1210
sg15
L0L
sg16
L2L
sg17
V\u5f53\u4e16\u754c\u5f88\u6b8b\u9177\u7684\u65f6\u5019\uff0c\u6211\u5e0c\u671b\u81ea\u5df1\u66f4\u9177\u3002
p1211
sg19
L0L
sg20
L0L
sg21
VNEW
p1212
sg23
VNEW
p1213
sg25
VWZX
p1214
sg27
Vwangzexin
p1215
sg29
L0L
sg30
L0L
sg31
L0L
sg32
L99261L
sg33
V\u65b0\u7586
p1216
sg35
V\u4e4c\u9c81\u6728\u9f50
p1217
sg36
g34
sg37
L17L
sg38
L0L
sg39
g34
sg40
L0L
sg41
g34
sg42
g34
sg43
L0L
sa(dp1218
g2
L0L
sg3
V@d9023c13ef9cad647da11ed9c15f843e
p1219
sg5
VJJ <span class="emoji emoji1f498"></span> yapstar
p1220
sg7
V/cgi-bin/mmwebwx-bin/webwxgeticon?seq=662772978&username=@d9023c13ef9cad647da11ed9c15f843e&skey=@crypt_b1266bc9_04bf18fb8ff022a8b4e3c5d868291675
p1221
sg9
L1L
sg10
L0L
sg11
(lp1222
sg13
V\u66f9\u71d5\u5e73
p1223
sg15
L0L
sg16
L1L
sg17
VIf U want to wear the crown,bears its weight !!!
p1224
sg19
L0L
sg20
L0L
sg21
VJJSPANCLASSEMOJIEMOJI1F498SPANYAPSTAR
p1225
sg23
VJJspanclassemojiemoji1f498spanyapstar
p1226
sg25
VCYP
p1227
sg27
Vcaoyanping
p1228
sg29
L0L
sg30
L0L
sg31
L0L
sg32
L234429L
sg33
V\u4e0a\u6d77
p1229
sg35
V\u666e\u9640
p1230
sg36
g34
sg37
L17L
sg38
L0L
sg39
g34
sg40
L0L
sg41
Vll4
p1231
sg42
g34
sg43
L0L
sa(dp1232
g2
L0L
sg3
V@c376f38958f46b3ddec581ab43005dda98a1250ade6bc71f41c60596f4a035ac
p1233
sg5
V\u91cf\u91cf\u91cf
p1234
sg7
V/cgi-bin/mmwebwx-bin/webwxgeticon?seq=662859278&username=@c376f38958f46b3ddec581ab43005dda98a1250ade6bc71f41c60596f4a035ac&skey=@crypt_b1266bc9_04bf18fb8ff022a8b4e3c5d868291675
p1235
sg9
L1L
sg10
L0L
sg11
(lp1236
sg13
V\u4e01\u68a6
p1237
sg15
L0L
sg16
L2L
sg17
V\u95e8
p1238
sg19
L0L
sg20
L0L
sg21
VLLL
p1239
sg23
Vliangliangliang
p1240
sg25
VDM
p1241
sg27
Vdingmeng
p1242
sg29
L0L
sg30
L0L
sg31
L0L
sg32
L16909413L
sg33
V\u6e56\u5317
p1243
sg35
V\u5b5d\u611f
p1244
sg36
g34
sg37
L17L
sg38
L0L
sg39
g34
sg40
L0L
sg41
g34
sg42
g34
sg43
L0L
sa(dp1245
g2
L0L
sg3
V@1017db41e227493fbca448b3a5ff1643
p1246
sg5
V\u677f\u6817\u7399
p1247
sg7
V/cgi-bin/mmwebwx-bin/webwxgeticon?seq=662859279&username=@1017db41e227493fbca448b3a5ff1643&skey=@crypt_b1266bc9_04bf18fb8ff022a8b4e3c5d868291675
p1248
sg9
L1L
sg10
L0L
sg11
(lp1249
sg13
V\u738b\u4e39
p1250
sg15
L0L
sg16
L2L
sg17
V\u8c01\u80fd\u51ed\u7231\u610f\u5c06\u5bcc\u58eb\u5c71\u79c1\u6709
p1251
sg19
L0L
sg20
L0L
sg21
VBLY
p1252
sg23
Vbanliyu
p1253
sg25
VWD
p1254
sg27
Vwangdan
p1255
sg29
L0L
sg30
L0L
sg31
L0L
sg32
L231975L
sg33
V\u8d35\u5dde
p1256
sg35
V\u8d35\u9633
p1257
sg36
g34
sg37
L49L
sg38
L0L
sg39
g34
sg40
L0L
sg41
Vanv
p1258
sg42
g34
sg43
L0L
sa(dp1259
g2
L0L
sg3
V@e90fd5bb83fad565d49a8ec08b08c9bffeb2b0656e090915ede59c00bb84c331
p1260
sg5
V\u5176\u5b9e\u6211\u53eb\u732b
p1261
sg7
V/cgi-bin/mmwebwx-bin/webwxgeticon?seq=662858387&username=@e90fd5bb83fad565d49a8ec08b08c9bffeb2b0656e090915ede59c00bb84c331&skey=@crypt_b1266bc9_04bf18fb8ff022a8b4e3c5d868291675
p1262
sg9
L1L
sg10
L0L
sg11
(lp1263
sg13
V\u6bdb\u78ca
p1264
sg15
L0L
sg16
L2L
sg17
V<span class="emoji emoji1f431"></span>\u732b\u54aa
p1265
sg19
L0L
sg20
L0L
sg21
VQSWJM
p1266
sg23
Vqishiwojiaomao
p1267
sg25
VML
p1268
sg27
Vmaolei
p1269
sg29
L0L
sg30
L0L
sg31
L0L
sg32
L106853L
sg33
V\u9655\u897f
p1270
sg35
V\u897f\u5b89
p1271
sg36
g34
sg37
L145L
sg38
L0L
sg39
g34
sg40
L0L
sg41
g34
sg42
g34
sg43
L0L
sa(dp1272
g2
L0L
sg3
V@90e46067b701f3918ded6621b6e8d1eb8fe1efea91db8776236ffe203bf3f96e
p1273
sg5
Voxygen_xy
p1274
sg7
V/cgi-bin/mmwebwx-bin/webwxgeticon?seq=662832662&username=@90e46067b701f3918ded6621b6e8d1eb8fe1efea91db8776236ffe203bf3f96e&skey=@crypt_b1266bc9_04bf18fb8ff022a8b4e3c5d868291675
p1275
sg9
L65793L
sg10
L0L
sg11
(lp1276
sg13
V\u6211\u662f\u7fa4\u804a"\u897f\u7535\u6821\u56ed\u5927\u4f7f\u5de5\u4f5c\u53d1\u5e03"\u7684oxygen_xy
p1277
sg15
L0L
sg16
L2L
sg17
V\u613f\u4f60\u8d2a\u5403\u4e0d\u80d6\uff0c\u61d2\u60f0\u4e0d\u4e11\uff0c\u6df1\u60c5\u4e0d\u88ab\u8f9c\u8d1f\u3002
p1278
sg19
L0L
sg20
L0L
sg21
VOXYGENXY
p1279
sg23
Voxygenxy
p1280
sg25
VWSQLXDJYDSGZFBDOXYGENXY
p1281
sg27
Vwoshiqunliaoxidianjiaoyuandashigongzuofabudeoxygenxy
p1282
sg29
L0L
sg30
L0L
sg31
L0L
sg32
L102501L
sg33
V\u9655\u897f
p1283
sg35
V\u897f\u5b89
p1284
sg36
g34
sg37
L17L
sg38
L0L
sg39
g34
sg40
L0L
sg41
g34
sg42
g34
sg43
L0L
sa(dp1285
g2
L0L
sg3
V@5c3147ecd80c8df5dc1ad305d9c92f73
p1286
sg5
V\u5a77<span class="emoji emoji1f33a"></span>\u5a77<span class="emoji emoji2747"></span>\uff5e<span class="emoji emoji1f451"></span>
p1287
sg7
V/cgi-bin/mmwebwx-bin/webwxgeticon?seq=662778123&username=@5c3147ecd80c8df5dc1ad305d9c92f73&skey=@crypt_b1266bc9_04bf18fb8ff022a8b4e3c5d868291675
p1288
sg9
L3L
sg10
L0L
sg11
(lp1289
sg13
V\u5a77\u59d0
p1290
sg15
L0L
sg16
L1L
sg17
V\u8c22\u000a\u8c22\u000a\u4f60\u000a\u957f\u000a\u7684\u000a\u90a3\u000a\u4e48\u000a\u597d\u000a\u770b\u000a\u8fd8\u000a\u5173\u000a\u6ce8\u000a\u6211\u000a\u670b\u000a\u53cb\u000a\u5708\u000a\U0001f36d
p1291
sg19
L0L
sg20
L0L
sg21
VTSPANCLASSEMOJIEMOJI1F33ASPANTSPANCLASSEMOJIEMOJI2747SPANSPANCLASSEMOJIEMOJI1F451SPAN
p1292
sg23
Vtingspanclassemojiemoji1f33aspantingspanclassemojiemoji2747spanspanclassemojiemoji1f451span
p1293
sg25
VTJ
p1294
sg27
Vtingjie
p1295
sg29
L0L
sg30
L0L
sg31
L0L
sg32
L5175L
sg33
V\u6e56\u5317
p1296
sg35
V\u6b66\u6c49
p1297
sg36
g34
sg37
L17L
sg38
L0L
sg39
g34
sg40
L0L
sg41
Vyua
p1298
sg42
g34
sg43
L0L
sa(dp1299
g2
L0L
sg3
V@bad5c52c2a1ec3d8c2bdc369fa92006b73cf2518ba8e117a1c4a3810522fc6cb
p1300
sg5
V\u738b\u79d1Walker
p1301
sg7
V/cgi-bin/mmwebwx-bin/webwxgeticon?seq=662859721&username=@bad5c52c2a1ec3d8c2bdc369fa92006b73cf2518ba8e117a1c4a3810522fc6cb&skey=@crypt_b1266bc9_04bf18fb8ff022a8b4e3c5d868291675
p1302
sg9
L1L
sg10
L0L
sg11
(lp1303
sg13
V48#218\u738b\u79d1
p1304
sg15
L0L
sg16
L0L
sg17
V\u6210\u4eba\u4e4b\u7f8e \u4e0d\u8d1f\u97f6\u534e
p1305
sg19
L0L
sg20
L0L
sg21
VWKWALKER
p1306
sg23
VwangkeWalker
p1307
sg25
V48218WK
p1308
sg27
V48218wangke
p1309
sg29
L0L
sg30
L0L
sg31
L0L
sg32
L33558975L
sg33
g34
sg35
g34
sg36
g34
sg37
L1L
sg38
L0L
sg39
g34
sg40
L0L
sg41
g34
sg42
g34
sg43
L0L
sa(dp1310
g2
L0L
sg3
V@1b30278d7ef49c8a4046a9279a39566a85faff675ba253cccb6b5326120ea98a
p1311
sg5
V\u963f\u5f20
p1312
sg7
V/cgi-bin/mmwebwx-bin/webwxgeticon?seq=662859906&username=@1b30278d7ef49c8a4046a9279a39566a85faff675ba253cccb6b5326120ea98a&skey=@crypt_b1266bc9_04bf18fb8ff022a8b4e3c5d868291675
p1313
sg9
L1L
sg10
L0L
sg11
(lp1314
sg13
V\u5f20\u79c0\u829d
p1315
sg15
L0L
sg16
L2L
sg17
g34
sg19
L0L
sg20
L0L
sg21
VAZ
p1316
sg23
Vazhang
p1317
sg25
VZXZ
p1318
sg27
Vzhangxiuzhi
p1319
sg29
L0L
sg30
L0L
sg31
L0L
sg32
L102759L
sg33
V\u6cb3\u5317
p1320
sg35
V\u77f3\u5bb6\u5e84
p1321
sg36
g34
sg37
L17L
sg38
L0L
sg39
g34
sg40
L0L
sg41
g34
sg42
g34
sg43
L0L
sa(dp1322
g2
L0L
sg3
V@587ec4d66fe83d8857166a0d064f56daaf4e0c432c58a778ad0f2c94f8e2e9d9
p1323
sg5
VAlex
p1324
sg7
V/cgi-bin/mmwebwx-bin/webwxgeticon?seq=662837097&username=@587ec4d66fe83d8857166a0d064f56daaf4e0c432c58a778ad0f2c94f8e2e9d9&skey=@crypt_b1266bc9_04bf18fb8ff022a8b4e3c5d868291675
p1325
sg9
L1L
sg10
L0L
sg11
(lp1326
sg13
V\u5510\u4e00\u5cf0
p1327
sg15
L0L
sg16
L1L
sg17
V\u4eba\u95f4\u6709\u5473\u662f\u6e05\u6b22\uff01
p1328
sg19
L0L
sg20
L0L
sg21
VALEX
p1329
sg23
VAlex
p1330
sg25
VTYF
p1331
sg27
Vtangyifeng
p1332
sg29
L0L
sg30
L0L
sg31
L0L
sg32
L33656869L
sg33
g34
sg35
g34
sg36
g34
sg37
L17L
sg38
L0L
sg39
g34
sg40
L0L
sg41
g34
sg42
g34
sg43
L0L
sa(dp1333
g2
L0L
sg3
V@fcede863678fd4be7cd8d310c5403202
p1334
sg5
V\u4e2d\u6587
p1335
sg7
V/cgi-bin/mmwebwx-bin/webwxgeticon?seq=662832276&username=@fcede863678fd4be7cd8d310c5403202&skey=@crypt_b1266bc9_04bf18fb8ff022a8b4e3c5d868291675
p1336
sg9
L1L
sg10
L0L
sg11
(lp1337
sg13
V\u5f20\u5347
p1338
sg15
L0L
sg16
L1L
sg17
Vno
p1339
sg19
L0L
sg20
L0L
sg21
VZW
p1340
sg23
Vzhongwen
p1341
sg25
VZS
p1342
sg27
Vzhangsheng
p1343
sg29
L0L
sg30
L0L
sg31
L0L
sg32
L71719L
sg33
V\u5e7f\u4e1c
p1344
sg35
V\u5e7f\u5dde
p1345
sg36
g34
sg37
L17L
sg38
L0L
sg39
g34
sg40
L0L
sg41
VZ12
p1346
sg42
g34
sg43
L0L
sa(dp1347
g2
L0L
sg3
V@0023f81c2404e544e1b3a206b967926661d1a5c6fdff151d7a2abfcf0ae95059
p1348
sg5
Vjack cheng
p1349
sg7
V/cgi-bin/mmwebwx-bin/webwxgeticon?seq=662859980&username=@0023f81c2404e544e1b3a206b967926661d1a5c6fdff151d7a2abfcf0ae95059&skey=@crypt_b1266bc9_04bf18fb8ff022a8b4e3c5d868291675
p1350
sg9
L8193L
sg10
L0L
sg11
(lp1351
sg13
V\u7a0b\u4f73\u7426
p1352
sg15
L0L
sg16
L1L
sg17
VJoy, Ambition, Confidence, Keeping-JACK.
p1353
sg19
L0L
sg20
L0L
sg21
VJACKCHENG
p1354
sg23
Vjackcheng
p1355
sg25
VCJQ
p1356
sg27
Vchengjiaqi
p1357
sg29
L0L
sg30
L0L
sg31
L0L
sg32
L4296805L
sg33
V\u6e56\u5317
p1358
sg35
V\u5b5d\u611f
p1359
sg36
g34
sg37
L17L
sg38
L0L
sg39
g34
sg40
L0L
sg41
g34
sg42
g34
sg43
L0L
sa(dp1360
g2
L0L
sg3
V@b0874313965660740155233664ded8cb91395302d41506aeb7c5129c9212ac81
p1361
sg5
VSunshine
p1362
sg7
V/cgi-bin/mmwebwx-bin/webwxgeticon?seq=662860065&username=@b0874313965660740155233664ded8cb91395302d41506aeb7c5129c9212ac81&skey=@crypt_b1266bc9_04bf18fb8ff022a8b4e3c5d868291675
p1363
sg9
L1L
sg10
L0L
sg11
(lp1364
sg13
V\u9648\u68a6\u5a77
p1365
sg15
L0L
sg16
L2L
sg17
g34
sg19
L0L
sg20
L0L
sg21
VSUNSHINE
p1366
sg23
VSunshine
p1367
sg25
VCMT
p1368
sg27
Vchenmengting
p1369
sg29
L0L
sg30
L0L
sg31
L0L
sg32
L118885L
sg33
V\u6e56\u5317
p1370
sg35
V\u5b5d\u611f
p1371
sg36
g34
sg37
L49L
sg38
L0L
sg39
g34
sg40
L0L
sg41
g34
sg42
g34
sg43
L0L
sa(dp1372
g2
L0L
sg3
V@c4d292ed3c16bf277b3e87a5ed27fce5dd193d241b67746dd082f8905241c6a9
p1373
sg5
V\u963f\u7b19
p1374
sg7
V/cgi-bin/mmwebwx-bin/webwxgeticon?seq=662834322&username=@c4d292ed3c16bf277b3e87a5ed27fce5dd193d241b67746dd082f8905241c6a9&skey=@crypt_b1266bc9_04bf18fb8ff022a8b4e3c5d868291675
p1375
sg9
L65537L
sg10
L0L
sg11
(lp1376
sg13
V\u83ab\u96c1\u5a77
p1377
sg15
L0L
sg16
L2L
sg17
V\u8ba4\u771f\u52e4\u52c9\uff0c\u6212\u9a84\u6212\u8e81\u3002
p1378
sg19
L0L
sg20
L0L
sg21
VAS
p1379
sg23
Vasheng
p1380
sg25
VMYT
p1381
sg27
Vmoyanting
p1382
sg29
L0L
sg30
L0L
sg31
L0L
sg32
L4413L
sg33
g34
sg35
g34
sg36
g34
sg37
L1L
sg38
L0L
sg39
g34
sg40
L0L
sg41
g34
sg42
g34
sg43
L0L
sa(dp1383
g2
L0L
sg3
V@b0d9abf6c13d53a803f528ccb7fbb130223d8a197d0efe08932b241dc26efe38
p1384
sg5
Vleevid
p1385
sg7
V/cgi-bin/mmwebwx-bin/webwxgeticon?seq=662856562&username=@b0d9abf6c13d53a803f528ccb7fbb130223d8a197d0efe08932b241dc26efe38&skey=@crypt_b1266bc9_04bf18fb8ff022a8b4e3c5d868291675
p1386
sg9
L8193L
sg10
L0L
sg11
(lp1387
sg13
V\u674e\u4e34\u98ce
p1388
sg15
L0L
sg16
L1L
sg17
g34
sg19
L0L
sg20
L0L
sg21
VLEEVID
p1389
sg23
Vleevid
p1390
sg25
VLLF
p1391
sg27
Vlilinfeng
p1392
sg29
L0L
sg30
L0L
sg31
L0L
sg32
L67877L
sg33
g34
sg35
g34
sg36
g34
sg37
L49L
sg38
L0L
sg39
g34
sg40
L0L
sg41
g34
sg42
g34
sg43
L0L
sa(dp1393
g2
L0L
sg3
V@6ea89497659997c4163531ede605de9659d7a5ba7b67bb035ea84ad1c17dc3f7
p1394
sg5
V\U0001f36d
p1395
sg7
V/cgi-bin/mmwebwx-bin/webwxgeticon?seq=662859144&username=@6ea89497659997c4163531ede605de9659d7a5ba7b67bb035ea84ad1c17dc3f7&skey=@crypt_b1266bc9_04bf18fb8ff022a8b4e3c5d868291675
p1396
sg9
L1L
sg10
L0L
sg11
(lp1397
sg13
V\u7126\u667a\u6590
p1398
sg15
L0L
sg16
L2L
sg17
g34
sg19
L0L
sg20
L0L
sg21
V?
p1399
sg23
g1399
sg25
VJZF
p1400
sg27
Vjiaozhifei
p1401
sg29
L0L
sg30
L0L
sg31
L0L
sg32
L136101L
sg33
VCarlow
p1402
sg35
g34
sg36
g34
sg37
L17L
sg38
L0L
sg39
g34
sg40
L0L
sg41
g34
sg42
g34
sg43
L0L
sa(dp1403
g2
L0L
sg3
V@adc4e667c1a0031b78a2898f58001ea59adcb7c043be97cd93097fc00c39ecb1
p1404
sg5
VZXP
p1405
sg7
V/cgi-bin/mmwebwx-bin/webwxgeticon?seq=662826991&username=@adc4e667c1a0031b78a2898f58001ea59adcb7c043be97cd93097fc00c39ecb1&skey=@crypt_b1266bc9_04bf18fb8ff022a8b4e3c5d868291675
p1406
sg9
L1L
sg10
L0L
sg11
(lp1407
sg13
V\u5f20\u6653\u9e4f
p1408
sg15
L0L
sg16
L1L
sg17
g34
sg19
L0L
sg20
L0L
sg21
VZXP
p1409
sg23
VZXP
p1410
sg25
VZXP
p1411
sg27
Vzhangxiaopeng
p1412
sg29
L0L
sg30
L0L
sg31
L0L
sg32
L118823L
sg33
V\u9655\u897f
p1413
sg35
V\u897f\u5b89
p1414
sg36
g34
sg37
L145L
sg38
L0L
sg39
g34
sg40
L0L
sg41
g34
sg42
g34
sg43
L0L
sa(dp1415
g2
L0L
sg3
V@b4ba73b30c3349a378446012093c1ac46ee943a3bc929c1b51de00e34a88f6c6
p1416
sg5
V<span class="emoji emoji1f525"></span> Bonfire-Tiger<span class="emoji emoji1f42f"></span>
p1417
sg7
V/cgi-bin/mmwebwx-bin/webwxgeticon?seq=662825505&username=@b4ba73b30c3349a378446012093c1ac46ee943a3bc929c1b51de00e34a88f6c6&skey=@crypt_b1266bc9_04bf18fb8ff022a8b4e3c5d868291675
p1418
sg9
L65793L
sg10
L0L
sg11
(lp1419
sg13
V\u56fd\u9662\u674e\u6cf0\u9716
p1420
sg15
L0L
sg16
L2L
sg17
V\u7eb7\u6270\u751f\u6d3b\uff0c\u575a\u5b88\u68a6\u60f3~\u000atiger\u8bf4\u6bd4\u5531\u7684\u597d\u542c\uff0c\u7ec6\u8bf4\u4e27\u53c8\u4e0d\u5931\u4e50\u89c2\u7684\u4e8b~
p1421
sg19
L0L
sg20
L0L
sg21
VSPANCLASSEMOJIEMOJI1F525SPANBONFIRETIGERSPANCLASSEMOJIEMOJI1F42FSPAN
p1422
sg23
Vspanclassemojiemoji1f525spanBonfireTigerspanclassemojiemoji1f42fspan
p1423
sg25
VGYLTL
p1424
sg27
Vguoyuanlitailin
p1425
sg29
L0L
sg30
L0L
sg31
L0L
sg32
L135269L
sg33
V\u5e7f\u897f
p1426
sg35
V\u6842\u6797
p1427
sg36
g34
sg37
L17L
sg38
L0L
sg39
g34
sg40
L0L
sg41
g34
sg42
g34
sg43
L0L
sa.